(dp0
S'A1150'
p1
(dp2
S'keywords'
p3
(lp4
S''
p5
asS'name'
p6
S'Ho, K.'
p7
ssS'A523'
p8
(dp9
g3
(lp10
S'collaboration'
p11
aS'awareness'
p12
aS'attentionally ambient visualization'
p13
aS'brushing and linking'
p14
aS'linked views'
p15
aS'user study'
p16
asg6
S'Hajizadeh, A.H.'
p17
ssS'A1147'
p18
(dp19
g3
(lp20
g5
asg6
S'Kim, M.'
p21
ssS'A1201'
p22
(dp23
g3
(lp24
g5
asg6
S'Enns, P.'
p25
ssS'A987'
p26
(dp27
g3
(lp28
g5
asg6
S'Trung-Tien Phan-Quang'
p29
ssS'A914'
p30
(dp31
g3
(lp32
g5
asg6
S'Chau, D.'
p33
ssS'A234'
p34
(dp35
g3
(lp36
S'spatio-temporal queries'
p37
aS'urban data'
p38
aS'taxi movement data'
p39
aS'visual exploration'
p40
asg6
S'Silva, C.T.'
p41
ssS'A235'
p42
(dp43
g3
(lp44
g5
asg6
S'Perkins, M.'
p45
ssS'A236'
p46
(dp47
g3
g44
sg6
S'Yanlai Chen'
p48
ssS'A237'
p49
(dp50
g3
(lp51
S'visual analytics'
p52
aS'qualitative evaluation'
p53
aS'thinking aloud'
p54
aS'interaction logs'
p55
aS'eye tracking'
p56
aS'time series data'
p57
asg6
S'Blascheck, T.'
p58
ssS'A230'
p59
(dp60
g3
g36
sg6
S'Vo, H.T.'
p61
ssS'A231'
p62
(dp63
g3
(lp64
g5
asg6
S'Wilson, L.'
p65
ssS'A232'
p66
(dp67
g3
g64
sg6
S'Werner, H.'
p68
ssS'A233'
p69
(dp70
g3
g64
sg6
S'Park, M.'
p71
ssS'A335'
p72
(dp73
g3
(lp74
S'visual analytics'
p75
aS'portfolio mining'
p76
aS'web-based visualization'
p77
aS'casual visualization'
p78
aS'design study'
p79
asg6
S'Hanjun Xian'
p80
ssS'A334'
p81
(dp82
g3
g74
sg6
S'Yuetling Wong'
p83
ssS'A337'
p84
(dp85
g3
g74
sg6
S'Johri, A.'
p86
ssS'A336'
p87
(dp88
g3
g74
sg6
S'Zhihua Dong'
p89
ssS'A238'
p90
(dp91
g3
(lp92
S'visual analytics'
p93
aS'document analysis'
p94
aS'literary analysis'
p95
aS'natural language processing'
p96
aS'text mining'
p97
aS'machine learning'
p98
aS'distant reading'
p99
asg6
S'John, M.'
p100
ssS'A239'
p101
(dp102
g3
(lp103
S'eye-tracking'
p104
aS'space-time cube'
p105
aS'dynamic areas of interest'
p106
aS'spatiotemporal clustering'
p107
aS'motion-compensated heat map'
p108
asg6
S'Kurzhals, K.'
p109
ssS'A333'
p110
(dp111
g3
g74
sg6
S'Xin Chen'
p112
ssS'A332'
p113
(dp114
g3
g74
sg6
S'Vorvoreanu, M.'
p115
ssS'A1230'
p116
(dp117
g3
(lp118
S'visual analytics'
p119
aS'information visualization'
p120
aS'human information interaction'
p121
aS'sense making'
p122
aS'geo-spatial information systems'
p123
aS'temporal analysis'
p124
aS'user centered design'
p125
asg6
S'Tandon, S.'
p126
ssS'A1265'
p127
(dp128
g3
(lp129
S'ajax'
p130
aS'thin-client'
p131
aS'svg'
p132
aS'roc curves'
p133
aS'confusion matrices'
p134
aS'document categorization'
p135
asg6
S'Ratner, A.'
p136
ssS'A1173'
p137
(dp138
g3
(lp139
g5
asg6
S'Rosenblum, L.'
p140
ssS'A1172'
p141
(dp142
g3
g139
sg6
S'Kielman, J.'
p143
ssS'A1078'
p144
(dp145
g3
(lp146
S'network traffic visualization'
p147
aS'visual analysis'
p148
asg6
S'Ling Xiao'
p149
ssS'A1079'
p150
(dp151
g3
g146
sg6
S'Gerth, J.'
p152
ssS'A1177'
p153
(dp154
g3
(lp155
S'document visualization'
p156
aS'multidimensional visualization'
p157
aS'document analysis'
p158
aS'text analytics'
p159
aS'phylogenetic trees'
p160
asg6
S'Telles, G.P.'
p161
ssS'A1176'
p162
(dp163
g3
g155
sg6
S'Minghim, R.'
p164
ssS'A1175'
p165
(dp166
g3
g155
sg6
S'Paulovich, F.V.'
p167
ssS'A1174'
p168
(dp169
g3
g155
sg6
S'Cuadros, A.M.'
p170
ssS'A1072'
p171
(dp172
g3
(lp173
g5
asg6
S'Patrone, D.'
p174
ssS'A1073'
p175
(dp176
g3
(lp177
g5
asg6
S'Andrysco, N.'
p178
ssS'A1070'
p179
(dp180
g3
g173
sg6
S'Diehl, C.'
p181
ssS'A1071'
p182
(dp183
g3
g173
sg6
S'Pekala, M.'
p184
ssS'A1076'
p185
(dp186
g3
(lp187
S'fraud detection'
p188
aS'financial data visualization'
p189
aS'categorial and time-varying data'
p190
asg6
S'Kosara, R.'
p191
ssS'A1077'
p192
(dp193
g3
(lp194
g5
asg6
S'Sye-Min Chan'
p195
ssS'A759'
p196
(dp197
g3
(lp198
g5
asg6
S'Pinaud, B.'
p199
ssS'A1075'
p200
(dp201
g3
g177
sg6
S'Gurney, K.'
p202
ssS'A1238'
p203
(dp204
g3
(lp205
S'visual analytics'
p206
aS'graph and network visualization'
p207
aS'information analytics'
p208
aS'information visualization'
p209
asg6
S'Chin, G.'
p210
ssS'A1239'
p211
(dp212
g3
(lp213
S'visual analytics'
p214
aS'intelligence analysis'
p215
aS'problem solving environments'
p216
aS'visual knowledge discovery'
p217
asg6
S'Aggarwal, V.'
p218
ssS'A990'
p219
(dp220
g3
g28
sg6
S'DuBois, J.'
p221
ssS'A590'
p222
(dp223
g3
(lp224
g5
asg6
S'Felix, C.'
p225
ssS'A842'
p226
(dp227
g3
(lp228
S'event detection'
p229
aS'spatio-temporal data'
p230
aS'time series analysis'
p231
aS'scalable visualization'
p232
aS'geovisualization'
p233
asg6
S'Mock, M.'
p234
ssS'A898'
p235
(dp236
g3
(lp237
S'collaborative visualization'
p238
aS'text and document data'
p239
aS'intelligence analysis'
p240
asg6
S'Massjouni, N.'
p241
ssS'A758'
p242
(dp243
g3
(lp244
S'knowledge discovery'
p245
aS'sensitivity analysis'
p246
aS'local pattern visualizations'
p247
asg6
S'Ruiz, C.'
p248
ssS'A841'
p249
(dp250
g3
g228
sg6
S'Mladenov, M.'
p251
ssS'A899'
p252
(dp253
g3
g237
sg6
S'Kanna, R.'
p254
ssS'A519'
p255
(dp256
g3
(lp257
S'synthetic data generation'
p258
aS'data editing'
p259
aS'data acquisition and management'
p260
aS'multivariate data'
p261
aS'high-dimensional data'
p262
aS'interaction'
p263
aS'user interface'
p264
aS'parallel coordinates'
p265
aS'scatterplot'
p266
aS'n-d navigation'
p267
aS'multiple views'
p268
asg6
S'Ruchikachorn, P.'
p269
ssS'A840'
p270
(dp271
g3
(lp272
g5
asg6
S'MAller, T.'
p273
ssS'A908'
p274
(dp275
g3
(lp276
g5
asg6
S'Yi Han'
p277
ssS'A909'
p278
(dp279
g3
g276
sg6
S'Stuntebeck, E.P.'
p280
ssS'A906'
p281
(dp282
g3
(lp283
g5
asg6
S'Livingston, M.A.'
p284
ssS'A847'
p285
(dp286
g3
(lp287
S'collaboration'
p288
aS'coordinated multiple views'
p289
aS'instant messaging'
p290
aS'emergency response'
p291
aS'hazardous weather'
p292
asg6
S'Gutman, M.'
p293
ssS'A904'
p294
(dp295
g3
g283
sg6
S'Decker, J.W.'
p296
ssS'A905'
p297
(dp298
g3
(lp299
g5
asg6
S'Godwin, A.'
p300
ssS'A902'
p301
(dp302
g3
(lp303
S'graph analytics'
p304
aS'information visualization'
p305
asg6
S'Rohrer, R.M.'
p306
ssS'A903'
p307
(dp308
g3
g205
sg6
S'Foote, H.'
p309
ssS'A900'
p310
(dp311
g3
g205
sg6
S'Pak Chung Wong'
p312
ssS'A846'
p313
(dp314
g3
(lp315
S'bioinformatics'
p316
aS'visual analytics'
p317
asg6
S'Shaw, C.'
p318
ssS'A894'
p319
(dp320
g3
(lp321
g5
asg6
S'Harding, S.'
p322
ssS'A845'
p323
(dp324
g3
(lp325
S'email'
p326
aS'enron'
p327
aS'case study'
p328
aS'emailtime'
p329
aS'visual analysis'
p330
asg6
S'Ji-Dong Yim'
p331
ssS'A895'
p332
(dp333
g3
g321
sg6
S'Enguehard, R.'
p334
ssS'A339'
p335
(dp336
g3
(lp337
S'social media visuaization'
p338
aS'topic competition'
p339
aS'information diffusion'
p340
aS'information propagation'
p341
aS'agenda-setting'
p342
asg6
S'Yingcai Wu'
p343
ssS'A844'
p344
(dp345
g3
g325
sg6
S'Joorabchi, M.E.'
p346
ssS'A1232'
p347
(dp348
g3
g118
sg6
S'Schroh, D.'
p349
ssS'A518'
p350
(dp351
g3
g257
sg6
S'Bing Wang'
p352
ssS'A338'
p353
(dp354
g3
(lp355
S'topic coopetition'
p356
aS'information diffusion'
p357
aS'information propagation'
p358
aS'time-based visualization'
p359
asg6
S'Guodao Sun'
p360
ssS'A696'
p361
(dp362
g3
(lp363
g5
asg6
S'Icke, I.'
p364
ssS'A697'
p365
(dp366
g3
g363
sg6
S'Rosenberg, A.'
p367
ssS'A694'
p368
(dp369
g3
(lp370
S'digital collections'
p371
aS'archival analysis'
p372
aS'visual anaytics'
p373
aS'data curation'
p374
asg6
S'Varun Jain'
p375
ssS'A695'
p376
(dp377
g3
(lp378
g5
asg6
S'Gad, S.'
p379
ssS'A692'
p380
(dp381
g3
g370
sg6
S'Esteva, M.'
p382
ssS'A693'
p383
(dp384
g3
g370
sg6
S'Suyog Dutt Jain'
p385
ssS'A690'
p386
(dp387
g3
(lp388
g5
asg6
S'Lamagna, W.M.'
p389
ssS'A691'
p390
(dp391
g3
g370
sg6
S'Weijia Xu'
p392
ssS'A757'
p393
(dp394
g3
(lp395
S'uncertainty visualization'
p396
aS'multivariate visualization'
p397
aS'data quality'
p398
asg6
S'Rundensteiner, E.A.'
p399
ssS'A756'
p400
(dp401
g3
(lp402
S'image retrieval'
p403
aS'image layout'
p404
aS'semantic image classification'
p405
aS'multi-dimensional visualization'
p406
aS'visual analytics'
p407
asg6
S'Ward, M.O.'
p408
ssS'A755'
p409
(dp410
g3
(lp411
S'knowledge discovery'
p412
aS'visual analysis'
p413
aS'multivariate linear model construction'
p414
aS'model space visualization'
p415
asg6
S'Zhenyu Guo'
p416
ssS'A754'
p417
(dp418
g3
(lp419
g5
asg6
S'Marai, G.E.'
p420
ssS'A753'
p421
(dp422
g3
g419
sg6
S'Wenskovitch, J.E.'
p423
ssS'A752'
p424
(dp425
g3
g419
sg6
S'Rothenberger, S.D.'
p426
ssS'A698'
p427
(dp428
g3
(lp429
g5
asg6
S'Banfi, N.'
p430
ssS'A699'
p431
(dp432
g3
g429
sg6
S'Dudas, L.'
p433
ssS'A51'
p434
(dp435
g3
(lp436
g5
asg6
S'Lei Shi'
p437
ssS'A50'
p438
(dp439
g3
g436
sg6
S'Yifan Hu'
p440
ssS'A53'
p441
(dp442
g3
g436
sg6
S'Yutao Zhang'
p443
ssS'A52'
p444
(dp445
g3
g436
sg6
S'Xinzhu Mu'
p446
ssS'A55'
p447
(dp448
g3
(lp449
S'egocentric network'
p450
aS'dynamic graph'
p451
aS'network visualization'
p452
aS'glyph-based design'
p453
aS'visual analytics'
p454
asg6
S'Yanhong Wu'
p455
ssS'A54'
p456
(dp457
g3
g436
sg6
S'Jie Tang'
p458
ssS'A57'
p459
(dp460
g3
(lp461
S'faceted browsing'
p462
aS'network exploration'
p463
aS'dynamic query'
p464
aS'interaction'
p465
aS'information visualization'
p466
aS'visual analytics'
p467
asg6
S'Jian Zhao'
p468
ssS'A56'
p469
(dp470
g3
g449
sg6
S'Pitipornvivat, N.'
p471
ssS'A59'
p472
(dp473
g3
g449
sg6
S'Guowei Huang'
p474
ssS'A58'
p475
(dp476
g3
g449
sg6
S'Sixiao Yang'
p477
ssS'A1237'
p478
(dp479
g3
g395
sg6
S'Huang Shiping'
p480
ssS'A817'
p481
(dp482
g3
g146
sg6
S'Hanrahan, P.'
p483
ssS'A995'
p484
(dp485
g3
(lp486
S'visual analytics'
p487
aS'bioinformatics'
p488
aS'gene expression experiments'
p489
aS'microarray data'
p490
aS'large-scale microarray'
p491
asg6
S'Nieselt, K.'
p492
ssS'A1132'
p493
(dp494
g3
(lp495
S'wavelets'
p496
aS'hosvd'
p497
aS'surveillance'
p498
aS'anomaly detection'
p499
aS'trajectory'
p500
asg6
S'Parent, R.'
p501
ssS'A331'
p502
(dp503
g3
g74
sg6
S'Madhavan, K.'
p504
ssS'A330'
p505
(dp506
g3
g213
sg6
S'Gotz, D.'
p507
ssS'A623'
p508
(dp509
g3
(lp510
S'visual analytics'
p511
aS'visual text analysis'
p512
aS'text classification'
p513
asg6
S'Jankowska, M.'
p514
ssS'A622'
p515
(dp516
g3
(lp517
g5
asg6
S'Gramazio, C.'
p518
ssS'A621'
p519
(dp520
g3
(lp521
g5
asg6
S'Davey, J.'
p522
ssS'A620'
p523
(dp524
g3
(lp525
g5
asg6
S'Dill, J.'
p526
ssS'A627'
p527
(dp528
g3
(lp529
S'scatter/gather clustering'
p530
aS'alternative clustering'
p531
aS'constrained clustering'
p532
asg6
S'Ojili, P.K.R.'
p533
ssS'A626'
p534
(dp535
g3
g378
sg6
S'Hossain, M.S.'
p536
ssS'A625'
p537
(dp538
g3
g510
sg6
S'Milios, E.'
p539
ssS'A624'
p540
(dp541
g3
g510
sg6
S'Keselj, V.'
p542
ssS'A999'
p543
(dp544
g3
(lp545
S'dimension reduction'
p546
aS'linear discriminant analysis'
p547
aS'principal component analysis'
p548
aS'orthogonal centroid method'
p549
aS'2d projection'
p550
aS'clustered data'
p551
aS'regularization'
p552
aS'generalized singular value decomposition'
p553
asg6
S'Bohn, S.'
p554
ssS'A998'
p555
(dp556
g3
(lp557
g5
asg6
S'Walteros, P.R.'
p558
ssS'A629'
p559
(dp560
g3
g529
sg6
S'Muller, R.'
p561
ssS'A628'
p562
(dp563
g3
g529
sg6
S'Grimm, C.'
p564
ssS'A1262'
p565
(dp566
g3
(lp567
S'knowledge discovery'
p568
aS'scientific analytics'
p569
aS'trajectory analysis'
p570
aS'feature extraction'
p571
aS'spatio-temporal predicates'
p572
aS'visual analytics'
p573
asg6
S'Mehta, S.'
p574
ssS'A1229'
p575
(dp576
g3
(lp577
S'query-driven visualization'
p578
aS'network security'
p579
aS'data mining'
p580
aS'visual analytics'
p581
asg6
S'Kesheng Wu'
p582
ssS'A472'
p583
(dp584
g3
(lp585
S'mobility'
p586
aS'public transportation'
p587
aS'visual analytics'
p588
asg6
S'Wei Zeng'
p589
ssS'A473'
p590
(dp591
g3
g585
sg6
S'Chi-Wing Fu'
p592
ssS'A470'
p593
(dp594
g3
(lp595
S'similarity'
p596
aS'clustering'
p597
aS'matrix'
p598
aS'optimization'
p599
aS'climate model'
p600
asg6
S'Huntzinger, D.N.'
p601
ssS'A471'
p602
(dp603
g3
g595
sg6
S'Cook, R.'
p604
ssS'A476'
p605
(dp606
g3
(lp607
S'pixel-oriented techniques'
p608
aS'task and requirements analysis'
p609
aS'multidimensional data'
p610
aS'network security and intrusion'
p611
asg6
S'Landstorfer, J.'
p612
ssS'A477'
p613
(dp614
g3
g607
sg6
S'Herrmann, I.'
p615
ssS'A474'
p616
(dp617
g3
g585
sg6
S'Arisona, S.M.'
p618
ssS'A475'
p619
(dp620
g3
g585
sg6
S'Erath, A.'
p621
ssS'A573'
p622
(dp623
g3
(lp624
g5
asg6
S'Crouser, R.J.'
p625
ssS'A572'
p626
(dp627
g3
(lp628
g5
asg6
S'Ahmed, Z.'
p629
ssS'A478'
p630
(dp631
g3
g607
sg6
S'Stange, J.-E.'
p632
ssS'A479'
p633
(dp634
g3
g607
sg6
S'Dork, M.'
p635
ssS'A577'
p636
(dp637
g3
(lp638
g5
asg6
S'Jingjing Liu'
p639
ssS'A576'
p640
(dp641
g3
g20
sg6
S'Fisher, B.'
p642
ssS'A575'
p643
(dp644
g3
(lp645
g5
asg6
S'Riecke, B.E.'
p646
ssS'A574'
p647
(dp648
g3
g645
sg6
S'Calderon, N.A.'
p649
ssS'A967'
p650
(dp651
g3
(lp652
g5
asg6
S'Wright, B.'
p653
ssS'A1183'
p654
(dp655
g3
(lp656
g5
asg6
S'Gigitashvilli, S.'
p657
ssS'A1107'
p658
(dp659
g3
(lp660
g5
asg6
S'Cleveland, W.S.'
p661
ssS'A1181'
p662
(dp663
g3
g656
sg6
S'Jae Choi'
p664
ssS'A1186'
p665
(dp666
g3
(lp667
S'network security'
p668
aS'intrusion detection'
p669
aS'visualization'
p670
aS'data exploration'
p671
asg6
S'Hertzog, P.'
p672
ssS'A1187'
p673
(dp674
g3
g667
sg6
S'Lalanne, D.'
p675
ssS'A1184'
p676
(dp677
g3
g656
sg6
S'Wilson, J.'
p678
ssS'A1185'
p679
(dp680
g3
(lp681
g5
asg6
S'Catravas, P.'
p682
ssS'A1188'
p683
(dp684
g3
(lp685
g5
asg6
S'Bailey, S.J.'
p686
ssS'A1037'
p687
(dp688
g3
(lp689
g5
asg6
S'Bai Wang'
p690
ssS'A997'
p691
(dp692
g3
g557
sg6
S'Fujimoto, E.'
p693
ssS'A450'
p694
(dp695
g3
(lp696
S'utility services'
p697
aS'evidence-based decision making'
p698
aS'visual analytics'
p699
aS'aggregate'
p700
asg6
S'Yahui Zhao'
p701
ssS'A877'
p702
(dp703
g3
(lp704
g5
asg6
S'Weber, G.H.'
p705
ssS'A874'
p706
(dp707
g3
g704
sg6
S'Oesterling, P.'
p708
ssS'A875'
p709
(dp710
g3
g704
sg6
S'Teresniak, S.'
p711
ssS'A872'
p712
(dp713
g3
(lp714
g5
asg6
S'Wall, J.'
p715
ssS'A873'
p716
(dp717
g3
(lp718
g5
asg6
S'Boukhelifa, N.'
p719
ssS'A870'
p720
(dp721
g3
g714
sg6
S'Overby, D.'
p722
ssS'A871'
p723
(dp724
g3
g714
sg6
S'Keyser, J.'
p725
ssS'A1245'
p726
(dp727
g3
(lp728
S'interactive detection'
p729
aS'wormhole attacks'
p730
aS'visualization on network security'
p731
aS'wireless networks'
p732
aS'topology visualization'
p733
asg6
S'Weichao Wang'
p734
ssS'A1218'
p735
(dp736
g3
(lp737
S'mobile visualization'
p738
aS'visual analytics'
p739
aS'emergency response'
p740
asg6
S'Mellema, A.'
p741
ssS'A1219'
p742
(dp743
g3
g737
sg6
S'Collins, T.'
p744
ssS'A878'
p745
(dp746
g3
(lp747
S'text visualization'
p748
aS'multi-facet data visualization'
p749
asg6
S'Li Tan'
p750
ssS'A879'
p751
(dp752
g3
g747
sg6
S'Xiaoxiao Lian'
p753
ssS'A199'
p754
(dp755
g3
(lp756
S'visual knowledge discovery'
p757
aS'causality'
p758
aS'hypothesis testing'
p759
aS'visual evidence'
p760
aS'high-dimensional data'
p761
asg6
S'Jun Wang'
p762
ssS'A198'
p763
(dp764
g3
(lp765
S'visual analytics'
p766
aS'knowledge generation'
p767
aS'reasoning'
p768
aS'visualization taxonomies and models'
p769
aS'interaction'
p770
asg6
S'Ellis, G.'
p771
ssS'A780'
p772
(dp773
g3
(lp774
g5
asg6
S'Buck-Coleman, A.'
p775
ssS'A191'
p776
(dp777
g3
(lp778
S'multivariate data'
p779
aS'time series'
p780
aS'data reduction'
p781
aS'multidimensional scaling'
p782
asg6
S'Jackle, D.'
p783
ssS'A209'
p784
(dp785
g3
(lp786
g5
asg6
S'Szigeti, S.'
p787
ssS'A193'
p788
(dp789
g3
(lp790
S'visual analytics'
p791
aS'network traffic monitoring'
p792
aS'information visualization and geography-based solutions'
p793
asg6
S'Schreck, T.'
p794
ssS'A192'
p795
(dp796
g3
(lp797
g5
asg6
S'Fischer, F.'
p798
ssS'A195'
p799
(dp800
g3
g765
sg6
S'Sacha, D.'
p801
ssS'A194'
p802
(dp803
g3
(lp804
S'visual data exploration'
p805
aS'visualization technique'
p806
aS'visual analytics'
p807
asg6
S'Keim, D.A.'
p808
ssS'A197'
p809
(dp810
g3
(lp811
S'visual analytics'
p812
aS'investigative analysis'
p813
aS'cognitive  model'
p814
aS'framework'
p815
aS'roadblock'
p816
aS'qualitative experiment'
p817
asg6
S'Bum Chul Kwon'
p818
ssS'A161'
p819
(dp820
g3
(lp821
S'sensemaking'
p822
aS'analytic provenance'
p823
aS'transcription'
p824
aS'coding'
p825
aS'qualitative research'
p826
aS'timeline visualization'
p827
asg6
S'Fields, B.'
p828
ssS'A371'
p829
(dp830
g3
(lp831
S'visual analytics'
p832
aS'spatiotemporal data mining and visualization'
p833
aS'water quality'
p834
asg6
S'Braud, A.'
p835
ssS'A370'
p836
(dp837
g3
g831
sg6
S'Lalande, N.'
p838
ssS'A373'
p839
(dp840
g3
g831
sg6
S'Le Ber, F.'
p841
ssS'A372'
p842
(dp843
g3
g831
sg6
S'Bringay, S.'
p844
ssS'A375'
p845
(dp846
g3
g831
sg6
S'Teisseire, M.'
p847
ssS'A374'
p848
(dp849
g3
g831
sg6
S'Poncelet, P.'
p850
ssS'A377'
p851
(dp852
g3
(lp853
S'microblog analysis'
p854
aS'twitter'
p855
aS'text analytics'
p856
aS'social media monitoring'
p857
aS'live monitoring'
p858
aS'visual analytics'
p859
aS'information visualization'
p860
aS'filter construction'
p861
aS'query construction'
p862
aS'text classification'
p863
asg6
S'Kruger, R.'
p864
ssS'A376'
p865
(dp866
g3
g667
sg6
S'Bertini, E.'
p867
ssS'A379'
p868
(dp869
g3
(lp870
S'social media'
p871
aS'predictive analytics'
p872
aS'feature selection'
p873
asg6
S'Feng Wang'
p874
ssS'A378'
p875
(dp876
g3
(lp877
g5
asg6
S'Thom, D.'
p878
ssS'A526'
p879
(dp880
g3
(lp881
S'dynamic networks'
p882
aS'visualization'
p883
aS'supergraph clustering'
p884
asg6
S'Cap, C.H.'
p885
ssS'A278'
p886
(dp887
g3
(lp888
S'large categorical data'
p889
aS'contingency table analysis'
p890
aS'information interfaces and representation'
p891
aS'visual analytics'
p892
asg6
S'Aigner, W.'
p893
ssS'A279'
p894
(dp895
g3
(lp896
S'visual analytics'
p897
aS'model selection'
p898
aS'visual interaction'
p899
aS'time series analysis'
p900
aS'coordinated & multiple views'
p901
asg6
S'Rind, A.'
p902
ssS'A175'
p903
(dp904
g3
g888
sg6
S'Miksch, S.'
p905
ssS'A174'
p906
(dp907
g3
g888
sg6
S'Alsallakh, B.'
p908
ssS'A173'
p909
(dp910
g3
g896
sg6
S'Bogl, M.'
p911
ssS'A172'
p912
(dp913
g3
(lp914
g5
asg6
S'Kirste, T.'
p915
ssS'A171'
p916
(dp917
g3
g914
sg6
S'Kruger, F.'
p918
ssS'A170'
p919
(dp920
g3
(lp921
S'visual analytics'
p922
aS'collaborative and distributed visualization'
p923
aS'data management and knowledge representation'
p924
aS'visual knowledge discovery'
p925
asg6
S'Mueller, K.'
p926
ssS'A270'
p927
(dp928
g3
(lp929
g5
asg6
S'Samuels, L.R.'
p930
ssS'A271'
p931
(dp932
g3
g929
sg6
S'Greevy, R.A.'
p933
ssS'A272'
p934
(dp935
g3
(lp936
g5
asg6
S'Anreddy, S.'
p937
ssS'A273'
p938
(dp939
g3
g936
sg6
S'Song Zhang'
p940
ssS'A274'
p941
(dp942
g3
g936
sg6
S'Mercer, A.'
p943
ssS'A275'
p944
(dp945
g3
g936
sg6
S'Dyer, J.'
p946
ssS'A276'
p947
(dp948
g3
(lp949
S'climate study'
p950
aS'multivariate data'
p951
aS'correlation'
p952
aS'regression'
p953
aS'interaction'
p954
aS'statistical analysis'
p955
aS'visual analytics'
p956
asg6
S'Swan, J.E.'
p957
ssS'A178'
p958
(dp959
g3
(lp960
S'information visualization'
p961
aS'temporal event sequences'
p962
aS'visual analytics'
p963
aS'flow diagrams'
p964
aS'medical informatics'
p965
asg6
S'Stavropoulos, H.'
p966
ssS'A1137'
p967
(dp968
g3
(lp969
S'data management'
p970
aS'visual analytics'
p971
aS'data retrieval'
p972
aS'information visualization'
p973
aS'smart aggregation'
p974
aS'situational awareness'
p975
asg6
S'Tesone, D.R.'
p976
ssS'A1136'
p977
(dp978
g3
(lp979
S'news visualization'
p980
aS'semantic video classification'
p981
asg6
S'Satoh, S.'
p982
ssS'A1135'
p983
(dp984
g3
g402
sg6
S'Jianping Fan'
p985
ssS'A1134'
p986
(dp987
g3
g402
sg6
S'Hangzai Luo'
p988
ssS'A1133'
p989
(dp990
g3
(lp991
S'visual analytics'
p992
aS'visual knowledge discovery'
p993
aS'discovery management'
p994
aS'analysis guided exploration'
p995
asg6
S'Di Yang'
p996
ssS'A399'
p997
(dp998
g3
(lp999
S'disaster management'
p1000
aS'simulation control'
p1001
aS'decision making'
p1002
aS'visual evidence'
p1003
aS'storytelling'
p1004
asg6
S'Waser, J.'
p1005
ssS'A1131'
p1006
(dp1007
g3
g567
sg6
S'Machiraju, R.'
p1008
ssS'A1130'
p1009
(dp1010
g3
g495
sg6
S'Irfanoglu, O.'
p1011
ssS'A168'
p1012
(dp1013
g3
(lp1014
g5
asg6
S'Dan Zhang'
p1015
ssS'A398'
p1016
(dp1017
g3
g999
sg6
S'Konev, A.'
p1018
ssS'A1171'
p1019
(dp1020
g3
(lp1021
S'large data exploration'
p1022
aS'broadcast video analysis'
p1023
aS'time filtering'
p1024
aS'clustering'
p1025
aS'animation'
p1026
aS'comparative analysis'
p1027
asg6
S'Dongning Luo'
p1028
ssS'A751'
p1029
(dp1030
g3
(lp1031
g5
asg6
S'Eisemann, M.'
p1032
ssS'A200'
p1033
(dp1034
g3
(lp1035
S'system'
p1036
aS'timelines'
p1037
aS'authoring environment'
p1038
aS'time-oriented data'
p1039
aS'journalism'
p1040
asg6
S'Fulda, J.'
p1041
ssS'A285'
p1042
(dp1043
g3
(lp1044
S'time-varying data'
p1045
aS'graph wavelets'
p1046
aS'stacked graph visualization'
p1047
asg6
S'Dias, F.'
p1048
ssS'A284'
p1049
(dp1050
g3
g1044
sg6
S'Valdivia, P.'
p1051
ssS'A287'
p1052
(dp1053
g3
(lp1054
g5
asg6
S'Nonato, L.G.'
p1055
ssS'A286'
p1056
(dp1057
g3
g1044
sg6
S'Petronetto, F.'
p1058
ssS'A281'
p1059
(dp1060
g3
(lp1061
S'transportation'
p1062
aS'schedules'
p1063
aS'kernel density estimation'
p1064
aS'visual exploration'
p1065
asg6
S'Palomo, C.'
p1066
ssS'A280'
p1067
(dp1068
g3
(lp1069
g5
asg6
S'Lammarsch, T.'
p1070
ssS'A283'
p1071
(dp1072
g3
g36
sg6
S'Freire, J.'
p1073
ssS'A282'
p1074
(dp1075
g3
g1061
sg6
S'Zhan Guo'
p1076
ssS'A289'
p1077
(dp1078
g3
(lp1079
S'retweeting threads'
p1080
aS'anomaly detection'
p1081
aS'social media'
p1082
aS'visual analytics'
p1083
aS'machine learning'
p1084
aS'information visualization'
p1085
asg6
S'Yale Song'
p1086
ssS'A288'
p1087
(dp1088
g3
g1079
sg6
S'Zhen Wen'
p1089
ssS'A728'
p1090
(dp1091
g3
g624
sg6
S'Yauilla, A.R.'
p1092
ssS'A528'
p1093
(dp1094
g3
(lp1095
S'event sequences'
p1096
aS'simplification'
p1097
aS'electronic heath records'
p1098
aS'temporal query'
p1099
asg6
S'Monroe, M.'
p1100
ssS'A729'
p1101
(dp1102
g3
g624
sg6
S'Su, S.L.'
p1103
ssS'A750'
p1104
(dp1105
g3
(lp1106
g5
asg6
S'Hemery, P.'
p1107
ssS'A876'
p1108
(dp1109
g3
g704
sg6
S'Heyer, G.'
p1110
ssS'A529'
p1111
(dp1112
g3
g1095
sg6
S'Rongjian Lan'
p1113
ssS'A304'
p1114
(dp1115
g3
(lp1116
S'mr spectroscopy'
p1117
aS'cancer'
p1118
aS'brain'
p1119
aS'visualization'
p1120
aS'multi-modality data'
p1121
aS'radiotherapy planning'
p1122
aS'medical decision support systems'
p1123
asg6
S'Ken, S.'
p1124
ssS'A305'
p1125
(dp1126
g3
g1116
sg6
S'Laprie, A.'
p1127
ssS'A306'
p1128
(dp1129
g3
g1116
sg6
S'Buhler, k.'
p1130
ssS'A307'
p1131
(dp1132
g3
(lp1133
S'computational steering'
p1134
aS'visual analytics'
p1135
aS'critical infrastructure'
p1136
aS'homeland security'
p1137
asg6
S'Sungahn Ko'
p1138
ssS'A300'
p1139
(dp1140
g3
(lp1141
S'road-based query'
p1142
aS'taxi trajectory'
p1143
aS'hash index'
p1144
aS'visual analysis'
p1145
asg6
S'Hujun Bao'
p1146
ssS'A301'
p1147
(dp1148
g3
g1116
sg6
S'Nunes, M.'
p1149
ssS'A302'
p1150
(dp1151
g3
g1116
sg6
S'Rowland, B.'
p1152
ssS'A303'
p1153
(dp1154
g3
g1116
sg6
S'Schlachter, M.'
p1155
ssS'A390'
p1156
(dp1157
g3
(lp1158
S'visual analytics infrastructures'
p1159
aS'integration'
p1160
aS'interactive algorithms'
p1161
aS'user involvement'
p1162
aS'problem subdivision'
p1163
asg6
S'Sedlmair, M.'
p1164
ssS'A308'
p1165
(dp1166
g3
(lp1167
g5
asg6
S'Afzal, S.'
p1168
ssS'A309'
p1169
(dp1170
g3
(lp1171
g5
asg6
S'Walton, S.'
p1172
ssS'A1178'
p1173
(dp1174
g3
(lp1175
S'web session log analysis'
p1176
aS'visual exploratory data analysis'
p1177
aS'information visualization'
p1178
asg6
S'Lam, H.'
p1179
ssS'A649'
p1180
(dp1181
g3
(lp1182
S'cognitive theory'
p1183
aS'visual knowledge discovery'
p1184
aS'interaction design'
p1185
aS'reasoning'
p1186
aS'problem solving'
p1187
asg6
S'Smuc, M.'
p1188
ssS'A723'
p1189
(dp1190
g3
(lp1191
S'data cleaning and integration'
p1192
aS'user interfaces'
p1193
aS'visual analytics'
p1194
aS'visual data mining'
p1195
asg6
S'Getoor, L.'
p1196
ssS'A1003'
p1197
(dp1198
g3
(lp1199
S'visualization'
p1200
aS'multidimensional data'
p1201
aS'linkage analysis'
p1202
aS'posterior probability of linkage'
p1203
aS'ppl'
p1204
aS'ppld'
p1205
aS'ld analysis'
p1206
aS'linkage disequilibrium'
p1207
aS'autism'
p1208
asg6
S'Vieland, V.J.'
p1209
ssS'A1002'
p1210
(dp1211
g3
g1199
sg6
S'Han-Wei Shen'
p1212
ssS'A1001'
p1213
(dp1214
g3
g1199
sg6
S'Sang-Cheol Seok'
p1215
ssS'A1000'
p1216
(dp1217
g3
g1199
sg6
S'Nouanesengsy, B.'
p1218
ssS'A1007'
p1219
(dp1220
g3
(lp1221
S'education'
p1222
aS'evaluation'
p1223
aS'synthetic data'
p1224
asg6
S'Haack, J.'
p1225
ssS'A1006'
p1226
(dp1227
g3
(lp1228
g5
asg6
S'Sravanthi, K.'
p1229
ssS'A1005'
p1230
(dp1231
g3
g1228
sg6
S'Agrawal, S.'
p1232
ssS'A1004'
p1233
(dp1234
g3
(lp1235
g5
asg6
S'Grinstein, G.'
p1236
ssS'A1090'
p1237
(dp1238
g3
(lp1239
S'visual analysis'
p1240
aS'multivariate analysis'
p1241
aS'dimension reduction'
p1242
aS'multivariate model construction'
p1243
aS'multivariate visualization'
p1244
asg6
S'Yujie Liu'
p1245
ssS'A1009'
p1246
(dp1247
g3
g205
sg6
S'Thomas, J.'
p1248
ssS'A1008'
p1249
(dp1250
g3
g1221
sg6
S'Varley, C.'
p1251
ssS'A1258'
p1252
(dp1253
g3
(lp1254
S'geovisualization'
p1255
aS'exploratory visualization'
p1256
aS'historical geography'
p1257
aS'coordinated multiple views'
p1258
aS'travel pattern analysis'
p1259
asg6
S'Fyfe, D.'
p1260
ssS'A1091'
p1261
(dp1262
g3
g1239
sg6
S'Jacobs, D.'
p1263
ssS'A454'
p1264
(dp1265
g3
(lp1266
S'time series analysis'
p1267
aS'multiscale visualization'
p1268
aS'visual analytics'
p1269
asg6
S'Kothur, P.'
p1270
ssS'A658'
p1271
(dp1272
g3
(lp1273
g5
asg6
S'Dongxing Teng'
p1274
ssS'A659'
p1275
(dp1276
g3
(lp1277
g5
asg6
S'Haiyan Yang'
p1278
ssS'A455'
p1279
(dp1280
g3
g804
sg6
S'Sips, M.'
p1281
ssS'A652'
p1282
(dp1283
g3
(lp1284
g5
asg6
S'Vachon, F.'
p1285
ssS'A653'
p1286
(dp1287
g3
g1284
sg6
S'Gagnon, J.'
p1288
ssS'A650'
p1289
(dp1290
g3
g1182
sg6
S'Mayr, E.'
p1291
ssS'A651'
p1292
(dp1293
g3
g1284
sg6
S'Chamberland, C.'
p1294
ssS'A656'
p1295
(dp1296
g3
(lp1297
S'visual analytics'
p1298
aS'cognition and perception theory'
p1299
aS'embodied cognition'
p1300
aS'visualization taxonomies and models'
p1301
asg6
S'Green, T.M.'
p1302
ssS'A456'
p1303
(dp1304
g3
(lp1305
S'ocean modeling'
p1306
aS'model assessment'
p1307
aS'geospatial time series'
p1308
aS'cluster ensembles'
p1309
aS'visual comparison'
p1310
aS'visual analytics'
p1311
asg6
S'Dobslaw, H.'
p1312
ssS'A654'
p1313
(dp1314
g3
g1284
sg6
S'Banbury, S.'
p1315
ssS'A655'
p1316
(dp1317
g3
g1284
sg6
S'Tremblay, S.'
p1318
ssS'A457'
p1319
(dp1320
g3
g1266
sg6
S'Dransch, D.'
p1321
ssS'A99'
p1322
(dp1323
g3
(lp1324
g5
asg6
S'Matkovic, K.'
p1325
ssS'A98'
p1326
(dp1327
g3
(lp1328
S'visualization'
p1329
aS'fuzzy logic'
p1330
aS'interaction'
p1331
asg6
S'Groller, E.'
p1332
ssS'A95'
p1333
(dp1334
g3
(lp1335
S'interactive visual analysis'
p1336
aS'visualization in earth/space/ and environmental sciences'
p1337
aS'coordinated and multiple views'
p1338
aS'design studies'
p1339
asg6
S'Ferracutti, G.'
p1340
ssS'A94'
p1341
(dp1342
g3
(lp1343
g5
asg6
S'Gargiulo, F.'
p1344
ssS'A97'
p1345
(dp1346
g3
g1335
sg6
S'Bjerg, E.'
p1347
ssS'A96'
p1348
(dp1349
g3
g1335
sg6
S'Castro, S.'
p1350
ssS'A91'
p1351
(dp1352
g3
(lp1353
S'predictive modeling'
p1354
aS'visual analytics'
p1355
aS'epidemic visualization'
p1356
aS'spatial-temporal systems'
p1357
asg6
S'Mniszewski, S.'
p1358
ssS'A90'
p1359
(dp1360
g3
g1353
sg6
S'Xue Wu'
p1361
ssS'A93'
p1362
(dp1363
g3
g1335
sg6
S'Lujan Ganuza, M.'
p1364
ssS'A92'
p1365
(dp1366
g3
(lp1367
g5
asg6
S'Kwan-Liu Ma'
p1368
ssS'A955'
p1369
(dp1370
g3
(lp1371
S'spatio-temporal data'
p1372
aS'movement data'
p1373
aS'trajectories'
p1374
aS'clustering'
p1375
aS'classification'
p1376
aS'scalable visualization'
p1377
aS'geovisualization'
p1378
asg6
S'Pedreschi, D.'
p1379
ssS'A954'
p1380
(dp1381
g3
g1371
sg6
S'Nanni, M.'
p1382
ssS'A957'
p1383
(dp1384
g3
(lp1385
g5
asg6
S'Giereth, M.'
p1386
ssS'A956'
p1387
(dp1388
g3
g1371
sg6
S'Giannotti, F.'
p1389
ssS'A951'
p1390
(dp1391
g3
(lp1392
g5
asg6
S'Tarkkanen, S.'
p1393
ssS'A452'
p1394
(dp1395
g3
g696
sg6
S'Liting Sun'
p1396
ssS'A953'
p1397
(dp1398
g3
g1392
sg6
S'Hakanen, J.'
p1399
ssS'A952'
p1400
(dp1401
g3
g1392
sg6
S'Miettinen, K.'
p1402
ssS'A1098'
p1403
(dp1404
g3
(lp1405
S'web visualization'
p1406
aS'mobile visualization'
p1407
aS'analytic reasoning'
p1408
aS'law enforcement'
p1409
aS'multiple views'
p1410
asg6
S'Franklin, L.'
p1411
ssS'A453'
p1412
(dp1413
g3
g696
sg6
S'Jinyan Chen'
p1414
ssS'A959'
p1415
(dp1416
g3
(lp1417
g5
asg6
S'Dunlavy, D.M.'
p1418
ssS'A856'
p1419
(dp1420
g3
g1367
sg6
S'Correa, C.'
p1421
ssS'A1099'
p1422
(dp1423
g3
g1405
sg6
S'May, R.'
p1424
ssS'A1233'
p1425
(dp1426
g3
(lp1427
S'visual analytics'
p1428
aS'spatial information organization'
p1429
aS'indirect human computer interaction'
p1430
aS'indirect collaboration'
p1431
aS'agents'
p1432
aS'sense-making'
p1433
asg6
S'Keel, P.E.'
p1434
ssS'A969'
p1435
(dp1436
g3
g652
sg6
S'Steckman, M.'
p1437
ssS'A511'
p1438
(dp1439
g3
(lp1440
S'image segmentation'
p1441
aS'spectral clustering'
p1442
aS'high-dimensional embeddings'
p1443
aS'linked views'
p1444
aS'programming with example'
p1445
asg6
S'Schultz, T.'
p1446
ssS'A857'
p1447
(dp1448
g3
(lp1449
S'context'
p1450
aS'foraging'
p1451
aS'sensemaking'
p1452
aS'mapping'
p1453
aS'text analysis'
p1454
aS'geographic information retrieval'
p1455
asg6
S'Tomaszewski, B.'
p1456
ssS'A510'
p1457
(dp1458
g3
(lp1459
g5
asg6
S'Kohlhammer, J.'
p1460
ssS'A964'
p1461
(dp1462
g3
(lp1463
g5
asg6
S'Shaverdian, A.A.'
p1464
ssS'A513'
p1465
(dp1466
g3
g1385
sg6
S'Bosch, H.'
p1467
ssS'A965'
p1468
(dp1469
g3
g1463
sg6
S'Jagadish, H.V.'
p1470
ssS'A512'
p1471
(dp1472
g3
g1440
sg6
S'Kindlmann, G.'
p1473
ssS'A966'
p1474
(dp1475
g3
g1463
sg6
S'Michailidis, G.'
p1476
ssS'A950'
p1477
(dp1478
g3
(lp1479
g5
asg6
S'Jungk, P.'
p1480
ssS'A483'
p1481
(dp1482
g3
(lp1483
S'visual analysis'
p1484
aS'comparative visualization'
p1485
aS'3d data exploration'
p1486
aS'focus+context'
p1487
aS'mesh comparison'
p1488
asg6
S'Auzinger, T.'
p1489
ssS'A482'
p1490
(dp1491
g3
g1483
sg6
S'Preiner, R.'
p1492
ssS'A481'
p1493
(dp1494
g3
(lp1495
S'comparative visualization'
p1496
aS'focus+context visualization'
p1497
aS'image set comparison'
p1498
asg6
S'Schmidt, J.'
p1499
ssS'A480'
p1500
(dp1501
g3
g607
sg6
S'Wettach, R.'
p1502
ssS'A487'
p1503
(dp1504
g3
(lp1505
g5
asg6
S'Slingsby, A.'
p1506
ssS'A486'
p1507
(dp1508
g3
(lp1509
g5
asg6
S'Walker, R.'
p1510
ssS'A485'
p1511
(dp1512
g3
g1328
sg6
S'Bruckner, S.'
p1513
ssS'A484'
p1514
(dp1515
g3
g1483
sg6
S'Wimmer, T.'
p1516
ssS'A960'
p1517
(dp1518
g3
(lp1519
g5
asg6
S'Shead, T.'
p1520
ssS'A489'
p1521
(dp1522
g3
g1505
sg6
S'Wood, J.'
p1523
ssS'A488'
p1524
(dp1525
g3
g1505
sg6
S'Dykes, J.'
p1526
ssS'A722'
p1527
(dp1528
g3
(lp1529
S'uncertain graphs'
p1530
aS'comparative analysis'
p1531
aS'model comparison'
p1532
aS'visualizing uncertainty'
p1533
asg6
S'Namata, G.'
p1534
ssS'A713'
p1535
(dp1536
g3
(lp1537
g5
asg6
S'Bauer, J.'
p1538
ssS'A712'
p1539
(dp1540
g3
g1509
sg6
S'Roberts, J.C.'
p1541
ssS'A711'
p1542
(dp1543
g3
g1509
sg6
S'Teahan, W.'
p1544
ssS'A710'
p1545
(dp1546
g3
g1509
sg6
S'Hughes, C.'
p1547
ssS'A717'
p1548
(dp1549
g3
(lp1550
S'movement'
p1551
aS'trajectories'
p1552
aS'spatio-temporal data'
p1553
aS'spatial  events'
p1554
aS'spatial clustering'
p1555
aS'spatio-temporal clustering'
p1556
asg6
S'Hurter, C.'
p1557
ssS'A716'
p1558
(dp1559
g3
(lp1560
g5
asg6
S'Freeman, J.G.'
p1561
ssS'A715'
p1562
(dp1563
g3
g1537
sg6
S'Ebert, A.'
p1564
ssS'A714'
p1565
(dp1566
g3
g1537
sg6
S'Thelen, S.'
p1567
ssS'A719'
p1568
(dp1569
g3
g1550
sg6
S'Wrobel, S.'
p1570
ssS'A718'
p1571
(dp1572
g3
g1371
sg6
S'Rinzivillo, S.'
p1573
ssS'A961'
p1574
(dp1575
g3
(lp1576
S'information visualization'
p1577
aS'visual analysis'
p1578
aS'correlation analysis'
p1579
aS'mass spectrometry'
p1580
aS'proteomics'
p1581
aS'interactome'
p1582
asg6
S'Kincaid, R.'
p1583
ssS'A1217'
p1584
(dp1585
g3
g737
sg6
S'SungYe Kim'
p1586
ssS'A502'
p1587
(dp1588
g3
(lp1589
S'visualization'
p1590
aS'analysis'
p1591
aS'collaboration'
p1592
aS'design'
p1593
aS'computer-supported cooperative work'
p1594
asg6
S'Agrawala, M.'
p1595
ssS'A503'
p1596
(dp1597
g3
g461
sg6
S'Balakrishnan, R.'
p1598
ssS'A500'
p1599
(dp1600
g3
(lp1601
S'crowdsourcing'
p1602
aS'social data analysis'
p1603
asg6
S'Steinitz, A.'
p1604
ssS'A501'
p1605
(dp1606
g3
g1601
sg6
S'Hartmann, B.'
p1607
ssS'A506'
p1608
(dp1609
g3
g1459
sg6
S'Bernard, J.'
p1610
ssS'A507'
p1611
(dp1612
g3
(lp1613
S'visual analytics'
p1614
aS'exploratory search'
p1615
aS'multivariate time series'
p1616
aS'motion capture data'
p1617
aS'data aggregation'
p1618
aS'cluster glyph'
p1619
asg6
S'Wilhelm, N.'
p1620
ssS'A504'
p1621
(dp1622
g3
(lp1623
S'video visual analytics'
p1624
aS'surveillance video'
p1625
aS'video visualization'
p1626
aS'video summarization'
p1627
aS'video browsing and exploration'
p1628
asg6
S'Meghdadi, A.H.'
p1629
ssS'A505'
p1630
(dp1631
g3
g1623
sg6
S'Irani, P.'
p1632
ssS'A1158'
p1633
(dp1634
g3
g1519
sg6
S'Stanton, E.'
p1635
ssS'A508'
p1636
(dp1637
g3
g1613
sg6
S'Kruger, B.'
p1638
ssS'A509'
p1639
(dp1640
g3
g521
sg6
S'May, T.'
p1641
ssS'A527'
p1642
(dp1643
g3
g881
sg6
S'Wollenberg, T.'
p1644
ssS'A958'
p1645
(dp1646
g3
g1519
sg6
S'Crossno, P.'
p1647
ssS'A139'
p1648
(dp1649
g3
(lp1650
S'geovisualization'
p1651
aS'transportation planning'
p1652
aS'vehicle scheduling'
p1653
aS'task-centered design'
p1654
aS'coordinated multiple views'
p1655
asg6
S'Andrienko, N.'
p1656
ssS'A138'
p1657
(dp1658
g3
(lp1659
S'visual analytics'
p1660
aS'movement data'
p1661
aS'networks'
p1662
aS'graphs'
p1663
aS'temporal aggregation'
p1664
aS'spatial aggregation'
p1665
aS'flows'
p1666
aS'clustering'
p1667
asg6
S'Roskosch, P.'
p1668
ssS'A133'
p1669
(dp1670
g3
(lp1671
S'mixed-initiative visual analytics'
p1672
aS'task modeling'
p1673
aS'recommender systems'
p1674
aS'sensemaking'
p1675
asg6
S'Wolverton, M.'
p1676
ssS'A132'
p1677
(dp1678
g3
g1671
sg6
S'Israel, D.'
p1679
ssS'A131'
p1680
(dp1681
g3
g1671
sg6
S'Cramer, N.'
p1682
ssS'A130'
p1683
(dp1684
g3
(lp1685
g5
asg6
S'Piringer, H.'
p1686
ssS'A137'
p1687
(dp1688
g3
g1659
sg6
S'Brodkorb, F.'
p1689
ssS'A136'
p1690
(dp1691
g3
(lp1692
g5
asg6
S'von Landesberger, T.'
p1693
ssS'A135'
p1694
(dp1695
g3
g1671
sg6
S'Burtner, R.'
p1696
ssS'A134'
p1697
(dp1698
g3
g1405
sg6
S'Bruce, J.'
p1699
ssS'A807'
p1700
(dp1701
g3
(lp1702
g5
asg6
S'Endicott-Popovsky, B.'
p1703
ssS'A657'
p1704
(dp1705
g3
(lp1706
g5
asg6
S'Kachkaev, A.'
p1707
ssS'A806'
p1708
(dp1709
g3
g1702
sg6
S'Lemieux, V.'
p1710
ssS'A1231'
p1711
(dp1712
g3
g118
sg6
S'Bodnar, A.'
p1713
ssS'A805'
p1714
(dp1715
g3
(lp1716
S'information discovery'
p1717
aS'social networks'
p1718
aS'social data mining'
p1719
aS'social visualization'
p1720
asg6
S'Jacovi, M.'
p1721
ssS'A436'
p1722
(dp1723
g3
(lp1724
S'climate changes'
p1725
aS'spatiotemporal visualization'
p1726
aS'station-based observation data'
p1727
aS'radial layout'
p1728
aS'visual analytics'
p1729
asg6
S'Zhao-Peng Meng'
p1730
ssS'A437'
p1731
(dp1732
g3
g1724
sg6
g5
ssS'A434'
p1733
(dp1734
g3
g1724
sg6
S'Jie Li'
p1735
ssS'A435'
p1736
(dp1737
g3
g1724
sg6
S'Kang Zhang'
p1738
ssS'A432'
p1739
(dp1740
g3
g1133
sg6
S'Kennedy, S.'
p1741
ssS'A433'
p1742
(dp1743
g3
g1133
sg6
S'Tolone, W.'
p1744
ssS'A430'
p1745
(dp1746
g3
g1133
sg6
S'Van Riper, D.'
p1747
ssS'A431'
p1748
(dp1749
g3
g1133
sg6
S'Gaither, K.'
p1750
ssS'A825'
p1751
(dp1752
g3
(lp1753
g5
asg6
S'Yizhou Yu'
p1754
ssS'A803'
p1755
(dp1756
g3
g1716
sg6
S'Uziel, E.'
p1757
ssS'A827'
p1758
(dp1759
g3
(lp1760
S'interaction'
p1761
aS'visual isomorph'
p1762
aS'problem solving'
p1763
asg6
S'Ryan, R.'
p1764
ssS'A826'
p1765
(dp1766
g3
g1753
sg6
S'Baoquan Chen'
p1767
ssS'A821'
p1768
(dp1769
g3
(lp1770
g5
asg6
S'Morris, M.R.'
p1771
ssS'A820'
p1772
(dp1773
g3
(lp1774
S'blogs'
p1775
aS'events'
p1776
aS'trends'
p1777
aS'time series'
p1778
aS'topic detection and tracking'
p1779
asg6
S'Fisher, D.'
p1780
ssS'A438'
p1781
(dp1782
g3
(lp1783
S'scatterplot'
p1784
aS'overdraw reduction'
p1785
aS'sampling'
p1786
aS'visual abstraction'
p1787
asg6
S'Haidong Chen'
p1788
ssS'A439'
p1789
(dp1790
g3
g1783
sg6
S'Honghui Mei'
p1791
ssS'A801'
p1792
(dp1793
g3
(lp1794
g5
asg6
S'Mei-Chun Hsu'
p1795
ssS'A800'
p1796
(dp1797
g3
(lp1798
S'visual opinion analysis'
p1799
aS'visual sentiment analysis'
p1800
aS'visual document analysis'
p1801
aS'attribute extraction'
p1802
asg6
S'Haug, L.'
p1803
ssS'A227'
p1804
(dp1805
g3
g36
sg6
S'Ferreira, N.'
p1806
ssS'A226'
p1807
(dp1808
g3
(lp1809
g5
asg6
S'Veas, E.'
p1810
ssS'A225'
p1811
(dp1812
g3
g1809
sg6
S'Sabol, V.'
p1813
ssS'A224'
p1814
(dp1815
g3
g1809
sg6
S'di Sciascio, C.'
p1816
ssS'A223'
p1817
(dp1818
g3
(lp1819
g5
asg6
S'Wen-Chin Chen'
p1820
ssS'A222'
p1821
(dp1822
g3
g1819
sg6
S'Hsu, W.'
p1823
ssS'A221'
p1824
(dp1825
g3
g1819
sg6
S'Yin-Hsi Kuo'
p1826
ssS'A220'
p1827
(dp1828
g3
g1819
sg6
S'Wen-Feng Cheng'
p1829
ssS'A340'
p1830
(dp1831
g3
g337
sg6
S'Tai-Quan Peng'
p1832
ssS'A341'
p1833
(dp1834
g3
g337
sg6
S'Zhu, J.J.H.'
p1835
ssS'A342'
p1836
(dp1837
g3
g1798
sg6
S'Janetzko, H.'
p1838
ssS'A343'
p1839
(dp1840
g3
(lp1841
S'visual analytics'
p1842
aS'sport analytics'
p1843
aS'soccer analysis'
p1844
asg6
S'Stein, M.'
p1845
ssS'A344'
p1846
(dp1847
g3
g1841
sg6
S'Deussen, O.'
p1848
ssS'A345'
p1849
(dp1850
g3
(lp1851
g5
asg6
S'Behrisch, M.'
p1852
ssS'A229'
p1853
(dp1854
g3
(lp1855
S'web-based visualization'
p1856
aS'gene regulatory network'
p1857
asg6
S'Doraiswamy, H.'
p1858
ssS'A228'
p1859
(dp1860
g3
g64
sg6
S'Lage, M.'
p1861
ssS'A1047'
p1862
(dp1863
g3
(lp1864
S'timetree'
p1865
aS'doi tree'
p1866
aS'tree visualization'
p1867
aS'organizational chart'
p1868
aS'timeseries data'
p1869
aS'visual analytics'
p1870
asg6
S'Bodnar, J.W.'
p1871
ssS'A1046'
p1872
(dp1873
g3
g1864
sg6
S'Card, S.K.'
p1874
ssS'A1045'
p1875
(dp1876
g3
(lp1877
g5
asg6
S'Oganov, A.R.'
p1878
ssS'A1044'
p1879
(dp1880
g3
g1877
sg6
S'Valle, M.'
p1881
ssS'A1043'
p1882
(dp1883
g3
g118
sg6
S'Wright, W.'
p1884
ssS'A1042'
p1885
(dp1886
g3
g118
sg6
S'Harper, R.'
p1887
ssS'A1041'
p1888
(dp1889
g3
(lp1890
S'human information interaction'
p1891
aS'visual analytics'
p1892
aS'sense-making'
p1893
aS'narrative'
p1894
aS'pattern detection'
p1895
aS'story making'
p1896
aS'story telling'
p1897
asg6
S'Eccles, R.'
p1898
ssS'A1040'
p1899
(dp1900
g3
g24
sg6
S'Kapler, T.'
p1901
ssS'A1049'
p1902
(dp1903
g3
(lp1904
g5
asg6
S'Brusilovsky, P.'
p1905
ssS'A1048'
p1906
(dp1907
g3
g1904
sg6
S'Jae-wook Ahn'
p1908
ssS'A1228'
p1909
(dp1910
g3
g577
sg6
S'Stockinger, K.'
p1911
ssS'A1168'
p1912
(dp1913
g3
g660
sg6
S'Nehme, R.R.V.'
p1914
ssS'A1169'
p1915
(dp1916
g3
g660
sg6
S'Glickman, L.T.'
p1917
ssS'A907'
p1918
(dp1919
g3
g283
sg6
S'Royle, D.'
p1920
ssS'A1164'
p1921
(dp1922
g3
(lp1923
g5
asg6
S'Parekh, N.'
p1924
ssS'A1165'
p1925
(dp1926
g3
g1923
sg6
S'Singhal, K.'
p1927
ssS'A1166'
p1928
(dp1929
g3
g660
sg6
S'Tyner, B.'
p1930
ssS'A1167'
p1931
(dp1932
g3
g660
sg6
S'Cheng Zheng'
p1933
ssS'A1160'
p1934
(dp1935
g3
g1519
sg6
S'Moreland, K.'
p1936
ssS'A1161'
p1937
(dp1938
g3
g1519
sg6
S'Baumes, J.'
p1939
ssS'A1162'
p1940
(dp1941
g3
g1519
sg6
S'Geveci, B.'
p1942
ssS'A1163'
p1943
(dp1944
g3
(lp1945
S'visual analytics query'
p1946
aS'similarity queries'
p1947
aS'interactive queries'
p1948
asg6
S'Morent, D.'
p1949
ssS'A1226'
p1950
(dp1951
g3
g577
sg6
S'Campbell, S.'
p1952
ssS'A1249'
p1953
(dp1954
g3
g402
sg6
S'Hubball, D.'
p1955
ssS'A749'
p1956
(dp1957
g3
g718
sg6
S'Fekete, J.'
p1958
ssS'A984'
p1959
(dp1960
g3
g28
sg6
S'Zaidi, F.'
p1961
ssS'A986'
p1962
(dp1963
g3
g28
sg6
S'Gilbert, F.'
p1964
ssS'A901'
p1965
(dp1966
g3
g205
sg6
S'Mackey, P.'
p1967
ssS'A843'
p1968
(dp1969
g3
g228
sg6
S'Politz, C.'
p1970
ssS'A919'
p1971
(dp1972
g3
(lp1973
S'visual analytics'
p1974
aS'sense-making'
p1975
aS'analysis process'
p1976
aS'visual history'
p1977
asg6
S'Dunsmuir, D.'
p1978
ssS'A858'
p1979
(dp1980
g3
(lp1981
g5
asg6
S'Lipford, H.R.'
p1982
ssS'A859'
p1983
(dp1984
g3
g1981
sg6
S'Stukes, F.'
p1985
ssS'A911'
p1986
(dp1987
g3
(lp1988
g5
asg6
S'Kisilevich, S.'
p1989
ssS'A910'
p1990
(dp1991
g3
g276
sg6
S'Abowd, G.'
p1992
ssS'A913'
p1993
(dp1994
g3
g32
sg6
S'Johnson, A.'
p1995
ssS'A912'
p1996
(dp1997
g3
g32
sg6
S'Yiwen Sun'
p1998
ssS'A915'
p1999
(dp2000
g3
g1228
sg6
S'Vadapalli, S.'
p2001
ssS'A588'
p2002
(dp2003
g3
g1945
sg6
S'Dayal, U.'
p2004
ssS'A917'
p2005
(dp2006
g3
g1973
sg6
S'Kadivar, N.'
p2007
ssS'A916'
p2008
(dp2009
g3
g1228
sg6
S'Karlapalem, K.'
p2010
ssS'A1026'
p2011
(dp2012
g3
(lp2013
g5
asg6
S'Dornburg, C.C.'
p2014
ssS'A589'
p2015
(dp2016
g3
g224
sg6
S'Bash, C.'
p2017
ssS'A889'
p2018
(dp2019
g3
(lp2020
S'information visualization'
p2021
aS'2d1/2 animation'
p2022
aS'line & surface graph animation'
p2023
aS'interaction'
p2024
aS'synchronization'
p2025
asg6
S'Laurendeau, D.'
p2026
ssS'A681'
p2027
(dp2028
g3
g1981
sg6
S'Dong Hyun Jeong'
p2029
ssS'A680'
p2030
(dp2031
g3
(lp2032
g5
asg6
S'Yoshinaga, N.'
p2033
ssS'A683'
p2034
(dp2035
g3
(lp2036
g5
asg6
S'Butkiewicz, T.'
p2037
ssS'A682'
p2038
(dp2039
g3
(lp2040
g5
asg6
S'Soo-Yeon Ji'
p2041
ssS'A685'
p2042
(dp2043
g3
(lp2044
S'visual analytics'
p2045
aS'risk assessment'
p2046
aS'coast guard'
p2047
asg6
S'Maule, B.'
p2048
ssS'A684'
p2049
(dp2050
g3
(lp2051
S'sensemaking'
p2052
aS'information foraging'
p2053
aS'collective intelligence'
p2054
aS'exploratory search'
p2055
aS'information workspace'
p2056
aS'entity-based'
p2057
aS'collaboration'
p2058
aS'intelligence analysis'
p2059
aS'visualization'
p2060
aS'semantic notebook'
p2061
aS'argumentation marshalling'
p2062
aS'visual analytics'
p2063
asg6
S'Bier, E.A.'
p2064
ssS'A687'
p2065
(dp2066
g3
(lp2067
S'neuroscience'
p2068
aS'stem cell segmentation'
p2069
aS'tracking'
p2070
aS'cell imaging'
p2071
aS'data management'
p2072
aS'visual analytics'
p2073
aS'navigation'
p2074
aS'exploration'
p2075
aS'query processing'
p2076
asg6
S'Mistry, S.Y.'
p2077
ssS'A686'
p2078
(dp2079
g3
g2067
sg6
S'Kulkarni, I.'
p2080
ssS'A689'
p2081
(dp2082
g3
g2067
sg6
S'Gopi, M.'
p2083
ssS'A688'
p2084
(dp2085
g3
g2067
sg6
S'Cummings, B.'
p2086
ssS'A760'
p2087
(dp2088
g3
g198
sg6
S'Dubois, J.'
p2089
ssS'A761'
p2090
(dp2091
g3
g28
sg6
S'Melancon, G.'
p2092
ssS'A766'
p2093
(dp2094
g3
(lp2095
g5
asg6
S'Striegel, A.'
p2096
ssS'A767'
p2097
(dp2098
g3
g2095
sg6
S'Zhong Su'
p2099
ssS'A764'
p2100
(dp2101
g3
g2095
sg6
S'Yuan He'
p2102
ssS'A765'
p2103
(dp2104
g3
g2095
sg6
S'Rui Li'
p2105
ssS'A46'
p2106
(dp2107
g3
g545
sg6
S'Jaegul Choo'
p2108
ssS'A47'
p2109
(dp2110
g3
g1760
sg6
S'Xiaoyu Wang'
p2111
ssS'A44'
p2112
(dp2113
g3
(lp2114
S'visual analytics'
p2115
aS'text analytics'
p2116
aS'wikipedia'
p2117
asg6
S'Cho, I.'
p2118
ssS'A45'
p2119
(dp2120
g3
(lp2121
S'visual text analysis'
p2122
aS'user interface'
p2123
aS'social media'
p2124
aS'demographic analysis'
p2125
asg6
S'ElTayeby, O.'
p2126
ssS'A42'
p2127
(dp2128
g3
(lp2129
S'uncertainty visualization'
p2130
aS'vector field data'
p2131
aS'coordinated and multiple views'
p2132
aS'glyph-based techniques'
p2133
asg6
S'Westermann, R.'
p2134
ssS'A43'
p2135
(dp2136
g3
g1981
sg6
S'Wenwen Dou'
p2137
ssS'A40'
p2138
(dp2139
g3
g2129
sg6
S'Demir, I.'
p2140
ssS'A41'
p2141
(dp2142
g3
(lp2143
g5
asg6
S'Kehrer, J.'
p2144
ssS'A865'
p2145
(dp2146
g3
g1685
sg6
S'Berger, W.'
p2147
ssS'A993'
p2148
(dp2149
g3
g28
sg6
S'Vieux, R.'
p2150
ssS'A852'
p2151
(dp2152
g3
(lp2153
S'subspace finding'
p2154
aS'clustering high-dimensional data'
p2155
aS'connected morphological operators'
p2156
aS'visual exploration'
p2157
aS'astronomical data'
p2158
asg6
S'Trager, S.'
p2159
ssS'A48'
p2160
(dp2161
g3
g402
sg6
S'Ribarsky, W.'
p2162
ssS'A49'
p2163
(dp2164
g3
g436
sg6
S'Qingsong Liu'
p2165
ssS'A853'
p2166
(dp2167
g3
g2153
sg6
S'Wilkinson, M.H.F.'
p2168
ssS'A867'
p2169
(dp2170
g3
(lp2171
S'sensemaking'
p2172
aS'semantic graph layout'
p2173
aS'visual analytics'
p2174
aS'network diagnosis'
p2175
aS'information visualization'
p2176
asg6
S'Kandula, S.'
p2177
ssS'A854'
p2178
(dp2179
g3
g2153
sg6
S'Roerdink, J.B.T.'
p2180
ssS'A866'
p2181
(dp2182
g3
(lp2183
g5
asg6
S'Jaeyeon Kihm'
p2184
ssS'A829'
p2185
(dp2186
g3
(lp2187
S'temporal relationships'
p2188
aS'temporal visualization'
p2189
asg6
S'Kilgore, R.M.'
p2190
ssS'A1227'
p2191
(dp2192
g3
g577
sg6
S'Dart, E.'
p2193
ssS'A985'
p2194
(dp2195
g3
g28
sg6
S'Archambault, D.'
p2196
ssS'A968'
p2197
(dp2198
g3
(lp2199
g5
asg6
S'Payne, J.'
p2200
ssS'A850'
p2201
(dp2202
g3
g2153
sg6
S'Ferdosi, B.J.'
p2203
ssS'A618'
p2204
(dp2205
g3
(lp2206
g5
asg6
S'Siahbani, M.'
p2207
ssS'A619'
p2208
(dp2209
g3
g2206
sg6
S'Sarkar, A.'
p2210
ssS'A616'
p2211
(dp2212
g3
(lp2213
g5
asg6
S'Skau, D.'
p2214
ssS'A617'
p2215
(dp2216
g3
g2206
sg6
S'Vadlapudi, R.'
p2217
ssS'A614'
p2218
(dp2219
g3
(lp2220
g5
asg6
S'Heidemann, G.'
p2221
ssS'A615'
p2222
(dp2223
g3
(lp2224
S'just-in-time descriptive analytics'
p2225
aS'feature identification and characterization'
p2226
aS'point-based visualizations'
p2227
asg6
S'Kandogan, E.'
p2228
ssS'A612'
p2229
(dp2230
g3
g2220
sg6
S'Netzel, R.'
p2231
ssS'A613'
p2232
(dp2233
g3
(lp2234
g5
asg6
S'Hoferlin, M.'
p2235
ssS'A610'
p2236
(dp2237
g3
(lp2238
g5
asg6
S'Silvello, G.'
p2239
ssS'A611'
p2240
(dp2241
g3
g2234
sg6
S'Hoferlin, B.'
p2242
ssS'A1224'
p2243
(dp2244
g3
(lp2245
S'temporal query'
p2246
aS'information visualization'
p2247
aS'user interface'
p2248
asg6
S'Shahamat, L.'
p2249
ssS'A469'
p2250
(dp2251
g3
g595
sg6
S'Schwalm, C.R.'
p2252
ssS'A468'
p2253
(dp2254
g3
g595
sg6
S'Hargrove, W.'
p2255
ssS'A465'
p2256
(dp2257
g3
g36
sg6
S'Poco, J.'
p2258
ssS'A464'
p2259
(dp2260
g3
(lp2261
S'probabilistic classification'
p2262
aS'confusion analysis'
p2263
aS'feature evaluation and selection'
p2264
aS'visual inspection'
p2265
asg6
S'Rauber, A.'
p2266
ssS'A467'
p2267
(dp2268
g3
g595
sg6
S'Yaxing Wei'
p2269
ssS'A466'
p2270
(dp2271
g3
g595
sg6
S'Dasgupta, A.'
p2272
ssS'A461'
p2273
(dp2274
g3
(lp2275
S'sparse traffic trajectory'
p2276
aS'traffic visualization'
p2277
aS'dynamic graph visualization'
p2278
aS'traffic congestion'
p2279
asg6
S'Yuan, J.'
p2280
ssS'A460'
p2281
(dp2282
g3
g2275
sg6
S'Tangzhi Ye'
p2283
ssS'A463'
p2284
(dp2285
g3
g2261
sg6
S'Hanbury, A.'
p2286
ssS'A462'
p2287
(dp2288
g3
g2275
sg6
S'Qianliang Wu'
p2289
ssS'A982'
p2290
(dp2291
g3
g28
sg6
S'Simonetto, P.'
p2292
ssS'A1225'
p2293
(dp2294
g3
g577
sg6
S'Bethel, E.W.'
p2295
ssS'A1220'
p2296
(dp2297
g3
g187
sg6
S'Kern, D.'
p2298
ssS'A33'
p2299
(dp2300
g3
(lp2301
S'scientific literature'
p2302
aS'visual document analysis'
p2303
aS'visual citation analysis'
p2304
aS'streamgraph'
p2305
aS'clustering'
p2306
asg6
S'Qi Han'
p2307
ssS'A32'
p2308
(dp2309
g3
(lp2310
S'visual analytics'
p2311
aS'human computer interaction'
p2312
aS'information retrieval'
p2313
aS'active learning'
p2314
aS'classification'
p2315
aS'user evaluation'
p2316
asg6
S'Heimerl, F.'
p2317
ssS'A31'
p2318
(dp2319
g3
(lp2320
g5
asg6
S'Jian Chen'
p2321
ssS'A30'
p2322
(dp2323
g3
(lp2324
S'provenance'
p2325
aS'analytic provenance'
p2326
aS'visual analytics'
p2327
aS'framework'
p2328
aS'visualization'
p2329
aS'conceptual model'
p2330
asg6
S'Sanyal, J.'
p2331
ssS'A37'
p2332
(dp2333
g3
(lp2334
S'visual analytics process'
p2335
aS'provenance'
p2336
aS'collaboration'
p2337
aS'visualization'
p2338
aS'computer-supported cooperative work'
p2339
asg6
S'Urbanek, S.'
p2340
ssS'A36'
p2341
(dp2342
g3
g2334
sg6
S'Scheidegger, C.E.'
p2343
ssS'A35'
p2344
(dp2345
g3
g2334
sg6
S'North, S.C.'
p2346
ssS'A34'
p2347
(dp2348
g3
(lp2349
S'patent retrieval'
p2350
aS'information visualization'
p2351
aS'visual analytics'
p2352
aS'multiple coordinated views'
p2353
asg6
S'Koch, S.'
p2354
ssS'A869'
p2355
(dp2356
g3
(lp2357
S'coordinated multiple views'
p2358
aS'cross-filtered queries'
p2359
aS'interaction states'
p2360
aS'natural language generation'
p2361
aS'visual provenance'
p2362
asg6
S'Nafari, M.'
p2363
ssS'A868'
p2364
(dp2365
g3
g2171
sg6
S'Mahajan, R.'
p2366
ssS'A39'
p2367
(dp2368
g3
g2129
sg6
S'Jarema, M.'
p2369
ssS'A38'
p2370
(dp2371
g3
g2334
sg6
S'Woodhull, G.'
p2372
ssS'A1223'
p2373
(dp2374
g3
g2245
sg6
S'Karlson, A.'
p2375
ssS'A1034'
p2376
(dp2377
g3
g689
sg6
S'Deyong Hu'
p2378
ssS'A1221'
p2379
(dp2380
g3
g187
sg6
S'Sudjianto, A.'
p2381
ssS'A983'
p2382
(dp2383
g3
g28
sg6
S'Koenig, P.-Y.'
p2384
ssS'A521'
p2385
(dp2386
g3
(lp2387
S'visual analytics'
p2388
aS'movement data'
p2389
aS'collective movement'
p2390
asg6
S'Dostie, M.'
p2391
ssS'A1148'
p2392
(dp2393
g3
g4
sg6
S'Wade, A.'
p2394
ssS'A388'
p2395
(dp2396
g3
(lp2397
S'regression'
p2398
aS'model building'
p2399
aS'visual knowledge discovery'
p2400
aS'feature selection'
p2401
aS'data partitioning'
p2402
aS'guided visualization'
p2403
asg6
S'Muhlbacher, T.'
p2404
ssS'A389'
p2405
(dp2406
g3
g1158
sg6
S'Gratzl, S.'
p2407
ssS'A384'
p2408
(dp2409
g3
(lp2410
S'time-series visualization'
p2411
aS'stacked graphs'
p2412
aS'log data visualization'
p2413
aS'text visualization'
p2414
asg6
S'Hong Zhou'
p2415
ssS'A385'
p2416
(dp2417
g3
(lp2418
S'visual to parametric interaction'
p2419
aS'visual analytics'
p2420
aS'statistical models'
p2421
asg6
S'Bradel, L.'
p2422
ssS'A386'
p2423
(dp2424
g3
(lp2425
S'visual analytics'
p2426
aS'semantic interaction'
p2427
aS'sensemaking'
p2428
aS'text analytics'
p2429
asg6
S'House, l.'
p2430
ssS'A387'
p2431
(dp2432
g3
(lp2433
S'observation-level interaction'
p2434
aS'visual analytics'
p2435
aS'statistical models'
p2436
asg6
S'Leman, S.'
p2437
ssS'A380'
p2438
(dp2439
g3
(lp2440
S'interactive visual analysis'
p2441
aS'epidemiology'
p2442
aS'spine'
p2443
asg6
S'Oeltze-Jafra, S.'
p2444
ssS'A381'
p2445
(dp2446
g3
g2440
sg6
S'Volzke, H.'
p2447
ssS'A382'
p2448
(dp2449
g3
(lp2450
g5
asg6
S'Stoffel, A.'
p2451
ssS'A383'
p2452
(dp2453
g3
g797
sg6
S'Stoffel, F.'
p2454
ssS'A142'
p2455
(dp2456
g3
(lp2457
S'human motion visualization'
p2458
aS'interactive clustering'
p2459
aS'motion tracking data'
p2460
aS'expert reviews'
p2461
aS'user study'
p2462
asg6
S'Sujin Jang'
p2463
ssS'A143'
p2464
(dp2465
g3
(lp2466
S'multivariate data'
p2467
aS'visual analytics'
p2468
aS'parallel coordinates'
p2469
aS'dynamic queries'
p2470
aS'iterative analysis'
p2471
aS'starplot'
p2472
aS'small multiples'
p2473
asg6
S'Elmqvist, N.'
p2474
ssS'A140'
p2475
(dp2476
g3
g1650
sg6
S'Andrienko, G.'
p2477
ssS'A141'
p2478
(dp2479
g3
g1659
sg6
S'Kerren, A.'
p2480
ssS'A146'
p2481
(dp2482
g3
(lp2483
S'clinical diagnosis'
p2484
aS'differential hierarchy comparison'
p2485
aS'ontology'
p2486
aS'genomics'
p2487
aS'phenomics'
p2488
aS'phenotype'
p2489
asg6
S'Hamilton, P.'
p2490
ssS'A147'
p2491
(dp2492
g3
g718
sg6
S'Chevalier, F.'
p2493
ssS'A144'
p2494
(dp2495
g3
g2457
sg6
S'Ramani, K.'
p2496
ssS'A145'
p2497
(dp2498
g3
g2483
sg6
S'Glueck, M.'
p2499
ssS'A263'
p2500
(dp2501
g3
(lp2502
g5
asg6
S'Gstrein, E.'
p2503
ssS'A262'
p2504
(dp2505
g3
(lp2506
g5
asg6
S'Gschwandtner, T.'
p2507
ssS'A261'
p2508
(dp2509
g3
g2502
sg6
S'Leite, R.A.'
p2510
ssS'A260'
p2511
(dp2512
g3
g1031
sg6
S'Magnor, M.'
p2513
ssS'A267'
p2514
(dp2515
g3
(lp2516
g5
asg6
S'Qiusheng Li'
p2517
ssS'A266'
p2518
(dp2519
g3
g2516
sg6
S'Jie Liangk'
p2520
ssS'A265'
p2521
(dp2522
g3
g2516
sg6
S'Youfeng hao'
p2523
ssS'A264'
p2524
(dp2525
g3
g2502
sg6
S'Kuntner, J.'
p2526
ssS'A1120'
p2527
(dp2528
g3
g1459
sg6
S'Tekusova, T.'
p2529
ssS'A1121'
p2530
(dp2531
g3
(lp2532
g5
asg6
S'Last, M.'
p2533
ssS'A1089'
p2534
(dp2535
g3
g1239
sg6
S'Tianyi Zhang'
p2536
ssS'A1088'
p2537
(dp2538
g3
(lp2539
S'visual analytics'
p2540
aS'knowledge discovery'
p2541
aS'visual clustering'
p2542
aS'machine learning'
p2543
aS'grand tour'
p2544
aS'high-dimensional data'
p2545
aS'network security'
p2546
asg6
S'Nam, J.E.'
p2547
ssS'A1124'
p2548
(dp2549
g3
(lp2550
S'visual data mining'
p2551
aS'multimedia data'
p2552
asg6
S'Yiwen Zhong'
p2553
ssS'A1125'
p2554
(dp2555
g3
g2550
sg6
S'Smith, T.'
p2556
ssS'A578'
p2557
(dp2558
g3
(lp2559
g5
asg6
S'Brodley, C.E.'
p2560
ssS'A1127'
p2561
(dp2562
g3
g2550
sg6
S'Weixia Huang'
p2563
ssS'A1083'
p2564
(dp2565
g3
g1324
sg6
S'Miklin, R.'
p2566
ssS'A1082'
p2567
(dp2568
g3
(lp2569
g5
asg6
S'Dalton, J.'
p2570
ssS'A1081'
p2571
(dp2572
g3
g2569
sg6
S'Kuchy, L.'
p2573
ssS'A1080'
p2574
(dp2575
g3
g2569
sg6
S'Holland, B.'
p2576
ssS'A1087'
p2577
(dp2578
g3
g1324
sg6
S'Freiler, W.'
p2579
ssS'A359'
p2580
(dp2581
g3
g1855
sg6
S'Bowen Yu'
p2582
ssS'A1085'
p2583
(dp2584
g3
g1324
sg6
S'Konyha, Z.'
p2585
ssS'A1084'
p2586
(dp2587
g3
g1324
sg6
S'Lipic, T.'
p2588
ssS'A546'
p2589
(dp2590
g3
(lp2591
S'cultural heritage'
p2592
aS'wall paintings'
p2593
aS'degradation'
p2594
aS'visual analytics'
p2595
asg6
S'Dajian Liu'
p2596
ssS'A547'
p2597
(dp2598
g3
g2591
sg6
S'Ye Yuan'
p2599
ssS'A544'
p2600
(dp2601
g3
(lp2602
g5
asg6
S'Reddy, C.K.'
p2603
ssS'A358'
p2604
(dp2605
g3
(lp2606
S'discovery search visualization'
p2607
aS'visual cues'
p2608
aS'discoverage'
p2609
aS'coverage tracking'
p2610
aS'document triage'
p2611
aS'interactive histograms'
p2612
asg6
S'Singhal, M.'
p2613
ssS'A542'
p2614
(dp2615
g3
(lp2616
S'visual analytics'
p2617
aS'sense-making'
p2618
aS'dataframe mode'
p2619
aS'evaluation'
p2620
aS'reasoning'
p2621
aS'analysis'
p2622
aS'interaction'
p2623
aS'interface design'
p2624
asg6
S'Choudhury, S.'
p2625
ssS'A543'
p2626
(dp2627
g3
(lp2628
S'latent dirichlet allocation'
p2629
aS'nonnegative matrix factorization'
p2630
aS'topic modeling'
p2631
aS'visual analytics'
p2632
aS'interactive clustering'
p2633
aS'text analytics'
p2634
asg6
S'Changhyun Lee'
p2635
ssS'A540'
p2636
(dp2637
g3
g2616
sg6
S'Kodagoda, N.'
p2638
ssS'A541'
p2639
(dp2640
g3
g2616
sg6
S'Rooney, C.'
p2641
ssS'A818'
p2642
(dp2643
g3
(lp2644
S'artificial intelligence'
p2645
aS'cognition'
p2646
aS'intent discernment'
p2647
aS'volume rendering'
p2648
asg6
S'DiPaola, S.'
p2649
ssS'A819'
p2650
(dp2651
g3
g1770
sg6
S'Isenberg, P.'
p2652
ssS'A548'
p2653
(dp2654
g3
(lp2655
S'graph search'
p2656
aS'graph query language'
p2657
aS'multidimensional data'
p2658
aS'attribute relationship graphs'
p2659
aS'multivariate data analysis'
p2660
aS'higher-order conjunctive queries'
p2661
aS'visual query language'
p2662
aS'digital humanities'
p2663
asg6
S'Shadoan, R.'
p2664
ssS'A549'
p2665
(dp2666
g3
g1254
sg6
S'Weaver, C.'
p2667
ssS'A1248'
p2668
(dp2669
g3
(lp2670
S'book index'
p2671
aS'ebooks'
p2672
aS'information scent'
p2673
aS'contextualization'
p2674
aS'personalized information access'
p2675
asg6
S'Heiser, J.'
p2676
ssS'A851'
p2677
(dp2678
g3
g2153
sg6
S'Buddelmeijer, H.'
p2679
ssS'A317'
p2680
(dp2681
g3
(lp2682
S'sports visualization'
p2683
aS'sports analytics'
p2684
aS'baseball'
p2685
aS'game reconstruction'
p2686
aS'baseball metrics'
p2687
aS'event data'
p2688
asg6
S'Koop, D.'
p2689
ssS'A316'
p2690
(dp2691
g3
g2682
sg6
S'Dietrich, C.'
p2692
ssS'A315'
p2693
(dp2694
g3
(lp2695
S'mobile visualization'
p2696
aS'network visualization'
p2697
aS'visual analytics'
p2698
asg6
S'Ebert, D.S.'
p2699
ssS'A314'
p2700
(dp2701
g3
(lp2702
S'visual knowledge discovery'
p2703
aS'data clustering'
p2704
aS'machine learning'
p2705
aS'multimedia visualization'
p2706
asg6
S'Chen, M.'
p2707
ssS'A313'
p2708
(dp2709
g3
g2695
sg6
S'Yun Jang'
p2710
ssS'A312'
p2711
(dp2712
g3
g2044
sg6
S'Malik, A.'
p2713
ssS'A311'
p2714
(dp2715
g3
(lp2716
g5
asg6
S'Junghoon Chae'
p2717
ssS'A310'
p2718
(dp2719
g3
g1171
sg6
S'Yang Yang'
p2720
ssS'A351'
p2721
(dp2722
g3
(lp2723
S'user interactions'
p2724
aS'analytic provenance'
p2725
aS'visualization'
p2726
aS'applied machine learning'
p2727
asg6
S'Quan Lin'
p2728
ssS'A319'
p2729
(dp2730
g3
(lp2731
S'boundary change'
p2732
aS'visual analytics'
p2733
aS'scatter plot'
p2734
aS'themeriver'
p2735
aS'contour map'
p2736
aS'radial visualization'
p2737
asg6
S'Yixian Zheng'
p2738
ssS'A318'
p2739
(dp2740
g3
g2731
sg6
S'Wenchao Wu'
p2741
ssS'A1146'
p2742
(dp2743
g3
g4
sg6
S'Ha, D.'
p2744
ssS'A350'
p2745
(dp2746
g3
g2723
sg6
S'Zhao, H.'
p2747
ssS'A560'
p2748
(dp2749
g3
(lp2750
S'traffic visualization'
p2751
aS'traffic jam propagation'
p2752
asg6
S'van de Wetering, H.'
p2753
ssS'A1068'
p2754
(dp2755
g3
g2199
sg6
S'McGrew, B.'
p2756
ssS'A277'
p2757
(dp2758
g3
g2143
sg6
S'Filzmoser, P.'
p2759
ssS'A1154'
p2760
(dp2761
g3
(lp2762
g5
asg6
S'Few, S.'
p2763
ssS'A1157'
p2764
(dp2765
g3
g1519
sg6
S'Greenfield, J.'
p2766
ssS'A1156'
p2767
(dp2768
g3
g1519
sg6
S'Wilson, A.'
p2769
ssS'A1018'
p2770
(dp2771
g3
(lp2772
g5
asg6
S'Dadzie, A.-S.'
p2773
ssS'A1019'
p2774
(dp2775
g3
g2772
sg6
S'Petrelli, D.'
p2776
ssS'A1153'
p2777
(dp2778
g3
g315
sg6
S'Eremeeva, M.E.'
p2779
ssS'A666'
p2780
(dp2781
g3
(lp2782
S'visual analytics'
p2783
aS'eye tracking'
p2784
aS'movement data'
p2785
aS'trajectory analysis'
p2786
asg6
S'Burch, M.'
p2787
ssS'A1014'
p2788
(dp2789
g3
(lp2790
g5
asg6
S'Liebig, T.'
p2791
ssS'A1015'
p2792
(dp2793
g3
g2790
sg6
S'Noppens, O.'
p2794
ssS'A1016'
p2795
(dp2796
g3
g2790
sg6
S'von Henke, F.'
p2797
ssS'A1017'
p2798
(dp2799
g3
g1692
sg6
S'Gorner, M.'
p2800
ssS'A1010'
p2801
(dp2802
g3
(lp2803
g5
asg6
S'Jones, C.'
p2804
ssS'A1011'
p2805
(dp2806
g3
g2803
sg6
S'Ogawa, M.'
p2807
ssS'A1012'
p2808
(dp2809
g3
g1367
sg6
S'Shearer, J.'
p2810
ssS'A1013'
p2811
(dp2812
g3
g2803
sg6
S'Tikhonova, A.'
p2813
ssS'A82'
p2814
(dp2815
g3
(lp2816
S'frame rate data'
p2817
aS'game performance evaluation'
p2818
aS'visual analytics'
p2819
asg6
S'Quan Li'
p2820
ssS'A83'
p2821
(dp2822
g3
g2816
sg6
S'Peng Xu'
p2823
ssS'A80'
p2824
(dp2825
g3
g237
sg6
S'Haeyong Chung'
p2826
ssS'A81'
p2827
(dp2828
g3
(lp2829
g5
asg6
S'Joshi, S.H.'
p2830
ssS'A86'
p2831
(dp2832
g3
(lp2833
g5
asg6
S'Si Li'
p2834
ssS'A87'
p2835
(dp2836
g3
g2833
sg6
S'Fei Wu'
p2837
ssS'A84'
p2838
(dp2839
g3
g2833
sg6
S'Haoling Dong'
p2840
ssS'A85'
p2841
(dp2842
g3
g2833
sg6
S'Siliang Tang'
p2843
ssS'A1038'
p2844
(dp2845
g3
(lp2846
g5
asg6
S'Farrugia, M.'
p2847
ssS'A88'
p2848
(dp2849
g3
g2833
sg6
S'Yueting Zhuang'
p2850
ssS'A89'
p2851
(dp2852
g3
g1353
sg6
S'Bryan, C.'
p2853
ssS'A1242'
p2854
(dp2855
g3
g2695
sg6
S'Xuan Zhong'
p2856
ssS'A1244'
p2857
(dp2858
g3
g2695
sg6
S'Coyle, E.'
p2859
ssS'A660'
p2860
(dp2861
g3
g1277
sg6
S'Cuixia Ma'
p2862
ssS'A920'
p2863
(dp2864
g3
g1973
sg6
S'Lee, E.'
p2865
ssS'A921'
p2866
(dp2867
g3
g1973
sg6
S'Qian, C.'
p2868
ssS'A922'
p2869
(dp2870
g3
g1973
sg6
S'Woodbury, R.'
p2871
ssS'A923'
p2872
(dp2873
g3
g804
sg6
S'Schneidewind, J.'
p2874
ssS'A861'
p2875
(dp2876
g3
(lp2877
g5
asg6
S'Lehmann, D.J.'
p2878
ssS'A925'
p2879
(dp2880
g3
(lp2881
g5
asg6
S'Birn, L.'
p2882
ssS'A926'
p2883
(dp2884
g3
(lp2885
g5
asg6
S'Shrinivasan, Y.B.'
p2886
ssS'A927'
p2887
(dp2888
g3
(lp2889
g5
asg6
S'Rose, S.'
p2890
ssS'A928'
p2891
(dp2892
g3
g2889
sg6
S'Butner, S.'
p2893
ssS'A929'
p2894
(dp2895
g3
g2889
sg6
S'Cowley, W.'
p2896
ssS'A1057'
p2897
(dp2898
g3
g24
sg6
S'Tat, A.'
p2899
ssS'A269'
p2900
(dp2901
g3
g2516
sg6
S'Yadong Wu'
p2902
ssS'A1062'
p2903
(dp2904
g3
(lp2905
g5
asg6
S'Stryker, M.'
p2906
ssS'A1064'
p2907
(dp2908
g3
g2905
sg6
S'Chaomei Chen'
p2909
ssS'A268'
p2910
(dp2911
g3
g2516
sg6
S'Haiyang Wang'
p2912
ssS'A1067'
p2913
(dp2914
g3
g2199
sg6
S'Sankar, R.'
p2915
ssS'A1149'
p2916
(dp2917
g3
g4
sg6
S'Chao, W.'
p2918
ssS'A1170'
p2919
(dp2920
g3
g187
sg6
S'Ghoniem, M.'
p2921
ssS'A804'
p2922
(dp2923
g3
g1716
sg6
S'Ronen, I.'
p2924
ssS'A1212'
p2925
(dp2926
g3
(lp2927
g5
asg6
S'Ahmed, A.'
p2928
ssS'A1210'
p2929
(dp2930
g3
(lp2931
S'wikipedia'
p2932
aS'social network analysis'
p2933
aS'controversy'
p2934
asg6
S'Brandes, U.'
p2935
ssS'A996'
p2936
(dp2937
g3
g486
sg6
S'Bartz, D.'
p2938
ssS'A823'
p2939
(dp2940
g3
g1770
sg6
S'Czerwinski, M.'
p2941
ssS'A148'
p2942
(dp2943
g3
g2483
sg6
S'Breslav, S.'
p2944
ssS'A991'
p2945
(dp2946
g3
g28
sg6
S'Sicre, R.'
p2947
ssS'A149'
p2948
(dp2949
g3
g2483
sg6
S'Khan, A.'
p2950
ssS'A79'
p2951
(dp2952
g3
(lp2953
g5
asg6
S'Simard, P.'
p2954
ssS'A78'
p2955
(dp2956
g3
g2953
sg6
S'Kapoor, A.'
p2957
ssS'A77'
p2958
(dp2959
g3
g2953
sg6
S'Drucker, S.'
p2960
ssS'A76'
p2961
(dp2962
g3
(lp2963
S'human-computer interaction'
p2964
aS'information visualization'
p2965
aS'network visualization'
p2966
aS'content-actor network data'
p2967
aS'iterative query refinement'
p2968
aS'incremental data exploration'
p2969
aS'user interfaces'
p2970
aS'digital library'
p2971
aS'piccolo'
p2972
asg6
S'Bongshin Lee'
p2973
ssS'A75'
p2974
(dp2975
g3
g2953
sg6
S'Amershi, S.'
p2976
ssS'A74'
p2977
(dp2978
g3
g2953
sg6
S'Brooks, M.'
p2979
ssS'A73'
p2980
(dp2981
g3
g660
sg6
S'Maciejewski, R.'
p2982
ssS'A72'
p2983
(dp2984
g3
(lp2985
S'media analysis'
p2986
aS'time series analysis'
p2987
aS'event detection'
p2988
asg6
S'Corman, S.R.'
p2989
ssS'A71'
p2990
(dp2991
g3
g2985
sg6
S'Montgomery, D.'
p2992
ssS'A70'
p2993
(dp2994
g3
g2985
sg6
S'Davulcu, H.'
p2995
ssS'A645'
p2996
(dp2997
g3
(lp2998
g5
asg6
S'Chakraborty, P.'
p2999
ssS'A644'
p3000
(dp3001
g3
g2998
sg6
S'Butler, P.'
p3002
ssS'A647'
p3003
(dp3004
g3
(lp3005
g5
asg6
S'Olislagers, F.'
p3006
ssS'A646'
p3007
(dp3008
g3
g2998
sg6
S'Ramakrishan, N.'
p3009
ssS'A641'
p3010
(dp3011
g3
(lp3012
g5
asg6
S'Maas, F.'
p3013
ssS'A640'
p3014
(dp3015
g3
g1031
sg6
S'Tatu, A.'
p3016
ssS'A643'
p3017
(dp3018
g3
g3012
sg6
S'Seidl, T.'
p3019
ssS'A642'
p3020
(dp3021
g3
g3012
sg6
S'Farber, I.'
p3022
ssS'A726'
p3023
(dp3024
g3
(lp3025
g5
asg6
S'Sen Xu'
p3026
ssS'A727'
p3027
(dp3028
g3
(lp3029
g5
asg6
S'Bannach, A.'
p3030
ssS'A724'
p3031
(dp3032
g3
(lp3033
g5
asg6
S'Singh, L.'
p3034
ssS'A725'
p3035
(dp3036
g3
g3025
sg6
S'Giacobe, N.A.'
p3037
ssS'A561'
p3038
(dp3039
g3
(lp3040
g5
asg6
S'Takle, J.'
p3041
ssS'A648'
p3042
(dp3043
g3
g1182
sg6
S'Pohl, M.'
p3044
ssS'A720'
p3045
(dp3046
g3
g1529
sg6
S'Sharara, H.'
p3047
ssS'A721'
p3048
(dp3049
g3
g1529
sg6
S'Sopan, A.'
p3050
ssS'A106'
p3051
(dp3052
g3
(lp3053
S'social network'
p3054
aS'visualization'
p3055
aS'sensemaking'
p3056
aS'visual analytics'
p3057
aS'socialnetsense'
p3058
asg6
S'Xiaolong Zhang'
p3059
ssS'A107'
p3060
(dp3061
g3
g2591
sg6
S'Jiawan Zhang'
p3062
ssS'A104'
p3063
(dp3064
g3
(lp3065
g5
asg6
S'Jie Liang'
p3066
ssS'A105'
p3067
(dp3068
g3
g2750
sg6
S'Zuchao Wang'
p3069
ssS'A102'
p3070
(dp3071
g3
(lp3072
S'spatial temporal visual analytics'
p3073
aS'geo-tagged social media'
p3074
aS'sparsely sampling'
p3075
aS'uncertainty'
p3076
aS'movement'
p3077
asg6
S'Zhenhuang Wang'
p3078
ssS'A103'
p3079
(dp3080
g3
g3072
sg6
S'Cong Guo'
p3081
ssS'A100'
p3082
(dp3083
g3
g2516
sg6
S'Siming Chen'
p3084
ssS'A101'
p3085
(dp3086
g3
g2750
sg6
S'Xiaoru Yuan'
p3087
ssS'A515'
p3088
(dp3089
g3
g2418
sg6
S'Xinran Hu'
p3090
ssS'A514'
p3091
(dp3092
g3
g877
sg6
S'Puttmann, E.'
p3093
ssS'A517'
p3094
(dp3095
g3
g2433
sg6
S'House, L.'
p3096
ssS'A516'
p3097
(dp3098
g3
g2433
sg6
S'Maiti, D.'
p3099
ssS'A458'
p3100
(dp3101
g3
(lp3102
S'interactive visual analysis'
p3103
aS'integrated design environment'
p3104
aS'simulation'
p3105
aS'visual steering'
p3106
aS'automatic optimization'
p3107
asg6
S'Stehno, B.'
p3108
ssS'A459'
p3109
(dp3110
g3
g3102
sg6
S'Purgathofer, W.'
p3111
ssS'A108'
p3112
(dp3113
g3
(lp3114
S'visual analytics'
p3115
aS'profiling system'
p3116
aS'musicians database visualization'
p3117
aS'digital humanities'
p3118
aS'musicology'
p3119
asg6
S'Janicke, S.'
p3120
ssS'A109'
p3121
(dp3122
g3
g3114
sg6
S'Focht, J.'
p3123
ssS'A1123'
p3124
(dp3125
g3
g2550
sg6
S'Chen Yu'
p3126
ssS'A391'
p3127
(dp3128
g3
(lp3129
S'opinion visualization'
p3130
aS'opinion diffusion'
p3131
aS'opinion flow'
p3132
aS'influence estimation'
p3133
aS'kernel density estimation'
p3134
aS'level-of-detail'
p3135
asg6
S'Kai Yan'
p3136
ssS'A1110'
p3137
(dp3138
g3
g685
sg6
S'Aragon, C.R.'
p3139
ssS'A992'
p3140
(dp3141
g3
g28
sg6
S'Brulin, M.'
p3142
ssS'A1031'
p3143
(dp3144
g3
g1367
sg6
S'Armstrong, R.'
p3145
ssS'A1112'
p3146
(dp3147
g3
(lp3148
S'data and knowledge visualization'
p3149
aS'scientific visualization'
p3150
aS'visual analytics'
p3151
aS'situation awareness'
p3152
aS'astrophysics'
p3153
asg6
S'Aldering, G.S.'
p3154
ssS'A1126'
p3155
(dp3156
g3
g2550
sg6
S'Park, I.'
p3157
ssS'A1114'
p3158
(dp3159
g3
g3148
sg6
S'Quimby, R.'
p3160
ssS'A421'
p3161
(dp3162
g3
(lp3163
S'time-series'
p3164
aS'visual analytics'
p3165
aS'e-transaction'
p3166
asg6
S'Xinxin Huang'
p3167
ssS'A420'
p3168
(dp3169
g3
g3163
sg6
S'Cong Xie'
p3170
ssS'A423'
p3171
(dp3172
g3
g1239
sg6
S'Barlowe, S.'
p3173
ssS'A422'
p3174
(dp3175
g3
g3163
sg6
S'Yueqi Hu'
p3176
ssS'A425'
p3177
(dp3178
g3
g92
sg6
S'Muller, A.'
p3179
ssS'A424'
p3180
(dp3181
g3
g2234
sg6
S'Worner, M.'
p3182
ssS'A427'
p3183
(dp3184
g3
g1133
sg6
S'Jing Xia'
p3185
ssS'A426'
p3186
(dp3187
g3
g1133
sg6
S'Jieqiong Zhao'
p3188
ssS'A429'
p3189
(dp3190
g3
g1133
sg6
S'Kne, L.'
p3191
ssS'A428'
p3192
(dp3193
g3
g1133
sg6
S'Abram, G.'
p3194
ssS'A580'
p3195
(dp3196
g3
(lp3197
S'data'
p3198
aS'analysis'
p3199
aS'visualization'
p3200
aS'enterprise'
p3201
asg6
S'Paepcke, A.'
p3202
ssS'A581'
p3203
(dp3204
g3
g3197
sg6
S'Hellerstein, J.M.'
p3205
ssS'A586'
p3206
(dp3207
g3
(lp3208
g5
asg6
S'Marwah, M.'
p3209
ssS'A587'
p3210
(dp3211
g3
g1851
sg6
S'Mittelstadt, S.'
p3212
ssS'A584'
p3213
(dp3214
g3
g1923
sg6
S'Stasko, J.'
p3215
ssS'A585'
p3216
(dp3217
g3
g1945
sg6
S'Hao, M.C.'
p3218
ssS'A1235'
p3219
(dp3220
g3
g1191
sg6
S'Licamele, L.'
p3221
ssS'A1159'
p3222
(dp3223
g3
g1519
sg6
S'Ice, L.'
p3224
ssS'A1051'
p3225
(dp3226
g3
(lp3227
g5
asg6
S'Oates, B.'
p3228
ssS'A579'
p3229
(dp3230
g3
g3197
sg6
S'Kandel, S.'
p3231
ssS'A1086'
p3232
(dp3233
g3
g1324
sg6
S'Beric, M.'
p3234
ssS'A212'
p3235
(dp3236
g3
(lp3237
S'graph based visual analytics'
p3238
aS'centrality'
p3239
aS'taxi trajectories'
p3240
aS'urban network'
p3241
aS'transportation assessment'
p3242
asg6
S'Xiaoke Huang'
p3243
ssS'A213'
p3244
(dp3245
g3
(lp3246
g5
asg6
S'Ye Zhao'
p3247
ssS'A210'
p3248
(dp3249
g3
g786
sg6
S'Jofre, A.'
p3250
ssS'A211'
p3251
(dp3252
g3
g786
sg6
S'Diamond, S.'
p3253
ssS'A216'
p3254
(dp3255
g3
g3237
sg6
S'Chao Ma'
p3256
ssS'A217'
p3257
(dp3258
g3
g3237
sg6
S'Xinyue Ye'
p3259
ssS'A214'
p3260
(dp3261
g3
g402
sg6
S'Jing Yang'
p3262
ssS'A215'
p3263
(dp3264
g3
g3237
sg6
S'Chong Zhang'
p3265
ssS'A353'
p3266
(dp3267
g3
g187
sg6
S'Chang, R.'
p3268
ssS'A352'
p3269
(dp3270
g3
g2723
sg6
S'Souvenir, R.'
p3271
ssS'A218'
p3272
(dp3273
g3
g1819
sg6
S'Yi-Chih Tsai'
p3274
ssS'A219'
p3275
(dp3276
g3
g1819
sg6
S'Liang-Chi Hsieh'
p3277
ssS'A357'
p3278
(dp3279
g3
g2606
sg6
S'Bart, E.'
p3280
ssS'A356'
p3281
(dp3282
g3
g2606
sg6
S'Ahern, S.'
p3283
ssS'A355'
p3284
(dp3285
g3
g2606
sg6
S'Damico, K.'
p3286
ssS'A354'
p3287
(dp3288
g3
g2606
sg6
S'Isaacs, E.'
p3289
ssS'A1050'
p3290
(dp3291
g3
g3227
sg6
S'Bouvier, D.J.'
p3292
ssS'A814'
p3293
(dp3294
g3
g2539
sg6
S'Garg, S.'
p3295
ssS'A1052'
p3296
(dp3297
g3
(lp3298
g5
asg6
S'Simeone, A.L.'
p3299
ssS'A1053'
p3300
(dp3301
g3
g3298
sg6
S'Paolo, B.'
p3302
ssS'A1054'
p3303
(dp3304
g3
g2602
sg6
S'Pokharkar, S.'
p3305
ssS'A1055'
p3306
(dp3307
g3
g2602
sg6
S'Tin Kam Ho'
p3308
ssS'A1056'
p3309
(dp3310
g3
g24
sg6
S'Chien, L.'
p3311
ssS'A815'
p3312
(dp3313
g3
g921
sg6
S'Ramakrishnan, I.'
p3314
ssS'A1058'
p3315
(dp3316
g3
g118
sg6
S'Proulx, P.'
p3317
ssS'A1059'
p3318
(dp3319
g3
(lp3320
g5
asg6
S'Khamisa, A.'
p3321
ssS'A816'
p3322
(dp3323
g3
(lp3324
g5
asg6
S'Talbot, J.'
p3325
ssS'A1119'
p3326
(dp3327
g3
(lp3328
g5
asg6
S'Meyer, J.'
p3329
ssS'A1118'
p3330
(dp3331
g3
g3328
sg6
S'Gerhardt, F.'
p3332
ssS'A545'
p3333
(dp3334
g3
g2591
sg6
S'Kai Kang'
p3335
ssS'A1111'
p3336
(dp3337
g3
g685
sg6
S'Poon, S.'
p3338
ssS'A810'
p3339
(dp3340
g3
g1702
sg6
S'Jansen, A.'
p3341
ssS'A1113'
p3342
(dp3343
g3
g685
sg6
S'Thomas, R.C.'
p3344
ssS'A190'
p3345
(dp3346
g3
(lp3347
g5
asg6
S'Papka, M.E.'
p3348
ssS'A1115'
p3349
(dp3350
g3
g1235
sg6
S'Laskowski, S.'
p3351
ssS'A571'
p3352
(dp3353
g3
(lp3354
g5
asg6
S'Benedik, R.'
p3355
ssS'A1117'
p3356
(dp3357
g3
g3246
sg6
S'Xinlei Zhao'
p3358
ssS'A811'
p3359
(dp3360
g3
(lp3361
S'note taking'
p3362
aS'recording'
p3363
aS'collaboration'
p3364
aS'tabletop'
p3365
aS'wall display'
p3366
aS'history'
p3367
aS'provenance'
p3368
asg6
S'Sarvghad, A.'
p3369
ssS'A1214'
p3370
(dp3371
g3
g2927
sg6
S'Seok-Hee Hong'
p3372
ssS'A570'
p3373
(dp3374
g3
(lp3375
g5
asg6
S'Buchetics, M.'
p3376
ssS'A537'
p3377
(dp3378
g3
g2702
sg6
S'Bown, R.'
p3379
ssS'A812'
p3380
(dp3381
g3
g187
sg6
S'Suma, E.'
p3382
ssS'A932'
p3383
(dp3384
g3
(lp3385
g5
asg6
S'Allen, D.'
p3386
ssS'A813'
p3387
(dp3388
g3
(lp3389
S'high-order finite elements'
p3390
aS'spectral/hp elements'
p3391
aS'cut-plane extraction'
p3392
aS'gpu-based root-finding'
p3393
aS'gpu ray-tracing'
p3394
aS'cut-surface extraction'
p3395
asg6
S'Ray, W.C.'
p3396
ssS'A1179'
p3397
(dp3398
g3
g1175
sg6
S'Russell, D.'
p3399
ssS'A1222'
p3400
(dp3401
g3
g2245
sg6
S'Fails, J.A.'
p3402
ssS'A569'
p3403
(dp3404
g3
(lp3405
g5
asg6
S'Bowerman, A.'
p3406
ssS'A1215'
p3407
(dp3408
g3
g2927
sg6
S'Quan Hoang Nguyen'
p3409
ssS'A1182'
p3410
(dp3411
g3
g656
sg6
S'Sang-joon Lee'
p3412
ssS'A536'
p3413
(dp3414
g3
g2702
sg6
S'Parry, M.L.'
p3415
ssS'A934'
p3416
(dp3417
g3
g3385
sg6
S'Huber, D.'
p3418
ssS'A1180'
p3419
(dp3420
g3
g1175
sg6
S'Tang, D.'
p3421
ssS'A1025'
p3422
(dp3423
g3
(lp3424
S'visual analytics'
p3425
aS'design'
p3426
aS'experimentation'
p3427
aS'human factors'
p3428
asg6
S'Kumar, A.'
p3429
ssS'A1024'
p3430
(dp3431
g3
g3424
sg6
S'Clement, T.'
p3432
ssS'A1027'
p3433
(dp3434
g3
g2013
sg6
S'Matzen, L.E.'
p3435
ssS'A971'
p3436
(dp3437
g3
(lp3438
S'text visualization'
p3439
aS'corpus visualization'
p3440
aS'information retrieval'
p3441
aS'text mining'
p3442
aS'tag clouds'
p3443
asg6
S'Viegas, F.B.'
p3444
ssS'A1021'
p3445
(dp3446
g3
g1505
sg6
S'Mountain, D.'
p3447
ssS'A1020'
p3448
(dp3449
g3
g1505
sg6
S'Khalili-Shavarini, N.'
p3450
ssS'A1023'
p3451
(dp3452
g3
g3424
sg6
S'Vuillemot, R.'
p3453
ssS'A1022'
p3454
(dp3455
g3
(lp3456
g5
asg6
S'Erdos, D.'
p3457
ssS'A582'
p3458
(dp3459
g3
g1864
sg6
S'Heer, J.'
p3460
ssS'A828'
p3461
(dp3462
g3
g2187
sg6
S'Godwin, J.A.'
p3463
ssS'A1029'
p3464
(dp3465
g3
g2013
sg6
S'McNamara, L.A.'
p3466
ssS'A939'
p3467
(dp3468
g3
(lp3469
S'geovisual analytics'
p3470
aS'visualization'
p3471
aS'self-organizing network'
p3472
aS'multi-layer'
p3473
aS'multi-dimensional'
p3474
aS'time-varying'
p3475
aS'geospatial data sets'
p3476
asg6
S'Astrom, T.'
p3477
ssS'A535'
p3478
(dp3479
g3
g2702
sg6
S'Chung, D.H.S.'
p3480
ssS'A1205'
p3481
(dp3482
g3
(lp3483
g5
asg6
S'Larson, J.'
p3484
ssS'A678'
p3485
(dp3486
g3
(lp3487
g5
asg6
S'Cottam, J.A.'
p3488
ssS'A679'
p3489
(dp3490
g3
g3487
sg6
S'Lumsdaine, A.'
p3491
ssS'A674'
p3492
(dp3493
g3
(lp3494
g5
asg6
S'Bustos, B.'
p3495
ssS'A675'
p3496
(dp3497
g3
(lp3498
g5
asg6
S'Anand, A.'
p3499
ssS'A676'
p3500
(dp3501
g3
(lp3502
g5
asg6
S'Goodwin, S.'
p3503
ssS'A677'
p3504
(dp3505
g3
(lp3506
g5
asg6
S'Kamijo, T.'
p3507
ssS'A670'
p3508
(dp3509
g3
(lp3510
g5
asg6
S'Sundaresan, N.'
p3511
ssS'A671'
p3512
(dp3513
g3
g3494
sg6
S'Sharalieva, L.'
p3514
ssS'A672'
p3515
(dp3516
g3
g3494
sg6
S'Wanner, F.'
p3517
ssS'A673'
p3518
(dp3519
g3
(lp3520
g5
asg6
S'Ruppert, T.'
p3521
ssS'A970'
p3522
(dp3523
g3
g652
sg6
S'Stevson, S.'
p3524
ssS'A1151'
p3525
(dp3526
g3
g4
sg6
S'Kaastra, L.'
p3527
ssS'A583'
p3528
(dp3529
g3
(lp3530
g5
asg6
S'Youn-ah Kang'
p3531
ssS'A1236'
p3532
(dp3533
g3
g395
sg6
S'Xie Zaixian'
p3534
ssS'A1189'
p3535
(dp3536
g3
g685
sg6
S'Runge, K.J.'
p3537
ssS'A1138'
p3538
(dp3539
g3
g969
sg6
S'Goodall, J.R.'
p3540
ssS'A980'
p3541
(dp3542
g3
(lp3543
g5
asg6
S'VinhTuan Thai'
p3544
ssS'A773'
p3545
(dp3546
g3
(lp3547
S'social media analytics'
p3548
aS'scenario-based design'
p3549
aS'geovisualization'
p3550
aS'situational awareness'
p3551
aS'text analytics'
p3552
aS'crisis management'
p3553
aS'spatio-temporal analysis'
p3554
asg6
S'Savelyev, A.'
p3555
ssS'A609'
p3556
(dp3557
g3
g2238
sg6
S'Santucci, G.'
p3558
ssS'A608'
p3559
(dp3560
g3
g2238
sg6
S'Granato, G.'
p3561
ssS'A979'
p3562
(dp3563
g3
(lp3564
g5
asg6
S'Fink, G.A.'
p3565
ssS'A978'
p3566
(dp3567
g3
g1273
sg6
S'Guozhong Dai'
p3568
ssS'A601'
p3569
(dp3570
g3
g1054
sg6
S'Daniels, J.'
p3571
ssS'A600'
p3572
(dp3573
g3
g1054
sg6
S'Brazil, E.V.'
p3574
ssS'A603'
p3575
(dp3576
g3
g1054
sg6
S'Sousa, M.C.'
p3577
ssS'A602'
p3578
(dp3579
g3
g1054
sg6
S'Joia, P.'
p3580
ssS'A605'
p3581
(dp3582
g3
(lp3583
g5
asg6
S'Schwabish, J.A.'
p3584
ssS'A604'
p3585
(dp3586
g3
(lp3587
g5
asg6
S'Tran, D.'
p3588
ssS'A607'
p3589
(dp3590
g3
g2238
sg6
S'Ferro, N.'
p3591
ssS'A606'
p3592
(dp3593
g3
g2238
sg6
S'Angelini, M.'
p3594
ssS'A418'
p3595
(dp3596
g3
(lp3597
S'similan'
p3598
aS'm&m measure'
p3599
aS'similarity search'
p3600
aS'temporal categorical records'
p3601
asg6
S'Wongsuphasawat, K.'
p3602
ssS'A419'
p3603
(dp3604
g3
(lp3605
S'information visualization'
p3606
aS'visual analytics'
p3607
aS'log analysis'
p3608
aS'log visualization'
p3609
aS'session analysis'
p3610
aS'funnel analysis'
p3611
asg6
S'Lin, J.'
p3612
ssS'A1213'
p3613
(dp3614
g3
g2927
sg6
S'Xiaoyan Fu'
p3615
ssS'A410'
p3616
(dp3617
g3
(lp3618
S'topic graph'
p3619
aS'graph matching'
p3620
aS'graph visualization'
p3621
aS'user interactions'
p3622
aS'level-of-detail'
p3623
asg6
S'Xiting Wang'
p3624
ssS'A411'
p3625
(dp3626
g3
g3618
sg6
S'Jianfei Chen'
p3627
ssS'A412'
p3628
(dp3629
g3
g3618
sg6
S'Jun Zhu'
p3630
ssS'A413'
p3631
(dp3632
g3
g3618
sg6
S'Baining Guo'
p3633
ssS'A414'
p3634
(dp3635
g3
(lp3636
S'multimedia (image/video/music) visualization'
p3637
aS'machine learning'
p3638
asg6
S'Zahlka, J.'
p3639
ssS'A415'
p3640
(dp3641
g3
(lp3642
S'visual analytics'
p3643
aS'interactive visual exploration'
p3644
aS'decision boundary visualization'
p3645
aS'multi-dimensional space'
p3646
aS'classification'
p3647
asg6
S'Worring, M.'
p3648
ssS'A416'
p3649
(dp3650
g3
g3498
sg6
S'Tuan Nhon Dang'
p3651
ssS'A417'
p3652
(dp3653
g3
g3498
sg6
S'Wilkinson, L.'
p3654
ssS'A788'
p3655
(dp3656
g3
g797
sg6
S'Huber, S.'
p3657
ssS'A789'
p3658
(dp3659
g3
g797
sg6
S'Lindemeier, T.'
p3660
ssS'A1211'
p3661
(dp3662
g3
g2931
sg6
S'Lerner, J.'
p3663
ssS'A1155'
p3664
(dp3665
g3
g1519
sg6
S'Wylie, B.'
p3666
ssS'A824'
p3667
(dp3668
g3
g1753
sg6
S'Zicheng Liao'
p3669
ssS'A768'
p3670
(dp3671
g3
g877
sg6
S'Jackle, D.'
p3672
ssS'A781'
p3673
(dp3674
g3
(lp3675
g5
asg6
S'He Liu'
p3676
ssS'A782'
p3677
(dp3678
g3
g3675
sg6
S'Yuan Gao'
p3679
ssS'A783'
p3680
(dp3681
g3
g3675
sg6
S'Lu Lu'
p3682
ssS'A784'
p3683
(dp3684
g3
g3675
sg6
S'Siyuan Liu'
p3685
ssS'A785'
p3686
(dp3687
g3
g3675
sg6
S'Ni, L.M.'
p3688
ssS'A786'
p3689
(dp3690
g3
(lp3691
g5
asg6
S'Dillingham, I.'
p3692
ssS'A787'
p3693
(dp3694
g3
g797
sg6
S'Buchmuller, J.'
p3695
ssS'A20'
p3696
(dp3697
g3
(lp3698
S'microblog data'
p3699
aS'mutual reinforcement model'
p3700
aS'uncertainty modeling'
p3701
aS'uncertainty visualization'
p3702
aS'uncertainty propagation'
p3703
asg6
S'Xizhou Zhu'
p3704
ssS'A21'
p3705
(dp3706
g3
g3698
sg6
S'Qinying Liao'
p3707
ssS'A22'
p3708
(dp3709
g3
g747
sg6
S'Furu Wei'
p3710
ssS'A23'
p3711
(dp3712
g3
g3698
sg6
S'Shimei Pan'
p3713
ssS'A24'
p3714
(dp3715
g3
(lp3716
S'biclusters'
p3717
aS'interactive visual analytics'
p3718
aS'coordinated relationships'
p3719
aS'design framework'
p3720
asg6
S'Maoyuan Sun'
p3721
ssS'A25'
p3722
(dp3723
g3
(lp3724
S'bicluster'
p3725
aS'coordinated relationship'
p3726
aS'semantic edge bundling'
p3727
asg6
S'Peng Mi'
p3728
ssS'A26'
p3729
(dp3730
g3
g1221
sg6
S'North, C.'
p3731
ssS'A27'
p3732
(dp3733
g3
g3208
sg6
S'Ramakrishnan, N.'
p3734
ssS'A28'
p3735
(dp3736
g3
g2324
sg6
S'Ragan, E.D.'
p3737
ssS'A29'
p3738
(dp3739
g3
g1221
sg6
S'Endert, A.'
p3740
ssS'A896'
p3741
(dp3742
g3
g321
sg6
S'Devillers, R.'
p3743
ssS'A897'
p3744
(dp3745
g3
g237
sg6
S'Seungwon Yang'
p3746
ssS'A890'
p3747
(dp3748
g3
g2020
sg6
S'Girardin, M.'
p3749
ssS'A891'
p3750
(dp3751
g3
g2187
sg6
S'Dudzic, S.'
p3752
ssS'A892'
p3753
(dp3754
g3
g321
sg6
S'Hoeber, O.'
p3755
ssS'A893'
p3756
(dp3757
g3
g321
sg6
S'Wilson, G.'
p3758
ssS'A775'
p3759
(dp3760
g3
g3547
sg6
S'Zhang, X.'
p3761
ssS'A774'
p3762
(dp3763
g3
(lp3764
g5
asg6
S'Mitra, P.'
p3765
ssS'A777'
p3766
(dp3767
g3
(lp3768
S'visual analytics'
p3769
aS'decision making'
p3770
aS'annotation'
p3771
aS'insight management'
p3772
aS'multidimensional visualization'
p3773
asg6
S'Yang Chen'
p3774
ssS'A776'
p3775
(dp3776
g3
g3547
sg6
S'Blanford, J.'
p3777
ssS'A771'
p3778
(dp3779
g3
g1254
sg6
S'Robinson, A.'
p3780
ssS'A770'
p3781
(dp3782
g3
g3764
sg6
S'Jaiswal, A.R.'
p3783
ssS'A769'
p3784
(dp3785
g3
g1254
sg6
S'MacEachren, A.M.'
p3786
ssS'A772'
p3787
(dp3788
g3
g3547
sg6
S'Pezanowski, S.'
p3789
ssS'A568'
p3790
(dp3791
g3
g3405
sg6
S'Beecham, R.'
p3792
ssS'A822'
p3793
(dp3794
g3
g1770
sg6
S'Inkpen, K.'
p3795
ssS'A779'
p3796
(dp3797
g3
g774
sg6
S'Gomez, J.A.G.'
p3798
ssS'A778'
p3799
(dp3800
g3
g3246
sg6
S'Alsakran, J.'
p3801
ssS'A256'
p3802
(dp3803
g3
(lp3804
S'visual analytics'
p3805
aS'time series analysis'
p3806
aS'order selection'
p3807
asg6
S'Lowe, T.'
p3808
ssS'A257'
p3809
(dp3810
g3
g3804
sg6
S'Forster, E.-C.'
p3811
ssS'A254'
p3812
(dp3813
g3
g3065
sg6
S'Chufan Lai'
p3814
ssS'A255'
p3815
(dp3816
g3
g2516
sg6
S'Ye Tangzhi'
p3817
ssS'A252'
p3818
(dp3819
g3
g2782
sg6
S'Weiskopf, D.'
p3820
ssS'A253'
p3821
(dp3822
g3
g2750
sg6
S'Min Lu'
p3823
ssS'A250'
p3824
(dp3825
g3
g811
sg6
S'Ji Soo Yi'
p3826
ssS'A251'
p3827
(dp3828
g3
(lp3829
S'visual analytics of documents'
p3830
aS'bibliographic data'
p3831
aS'dissemination'
p3832
aS'literature browser'
p3833
asg6
S'Beck, F.'
p3834
ssS'A397'
p3835
(dp3836
g3
(lp3837
S'progressive visual analytics'
p3838
aS'information visualization'
p3839
aS'interactive machine learning'
p3840
aS'electronic medical records'
p3841
asg6
S'Stolper, C.D.'
p3842
ssS'A396'
p3843
(dp3844
g3
(lp3845
S'visual analytics'
p3846
aS'natural scales'
p3847
aS'seasonal trend decomposition based on loess (stl)'
p3848
aS'law enforcement'
p3849
asg6
S'McCullough, S.'
p3850
ssS'A395'
p3851
(dp3852
g3
g3845
sg6
S'Towers, S.'
p3853
ssS'A394'
p3854
(dp3855
g3
g213
sg6
S'Zhou, M.X.'
p3856
ssS'A393'
p3857
(dp3858
g3
g3053
sg6
S'Liang Gou'
p3859
ssS'A392'
p3860
(dp3861
g3
g3129
sg6
S'Fangzhao Wu'
p3862
ssS'A258'
p3863
(dp3864
g3
g1031
sg6
S'Albuquerque, G.'
p3865
ssS'A259'
p3866
(dp3867
g3
g3804
sg6
S'Kreiss, J.-P.'
p3868
ssS'A1094'
p3869
(dp3870
g3
g1774
sg6
S'Hurst, M.'
p3871
ssS'A1095'
p3872
(dp3873
g3
g1405
sg6
S'Pike, W.A.'
p3874
ssS'A1096'
p3875
(dp3876
g3
g1405
sg6
S'Baddeley, B.'
p3877
ssS'A1097'
p3878
(dp3879
g3
g1405
sg6
S'Best, D.'
p3880
ssS'A159'
p3881
(dp3882
g3
g2616
sg6
S'Wong, B.L.W.'
p3883
ssS'A158'
p3884
(dp3885
g3
g821
sg6
S'Wheat, A.'
p3886
ssS'A1092'
p3887
(dp3888
g3
g1774
sg6
S'Hoff, A.'
p3889
ssS'A1093'
p3890
(dp3891
g3
g1774
sg6
S'Robertson, G.'
p3892
ssS'A155'
p3893
(dp3894
g3
g2885
sg6
S'van Wijk, J.J.'
p3895
ssS'A154'
p3896
(dp3897
g3
(lp3898
S'dynamic networks'
p3899
aS'exploration'
p3900
aS'dimensionality reduction'
p3901
asg6
S'Blaas, J.'
p3902
ssS'A157'
p3903
(dp3904
g3
g2927
sg6
S'Kai Xu'
p3905
ssS'A156'
p3906
(dp3907
g3
(lp3908
S'human terrain analysis'
p3909
aS'provenance'
p3910
aS'framework'
p3911
aS'bookmarks'
p3912
aS'narratives'
p3913
asg6
S'Nguyen, P.H.'
p3914
ssS'A151'
p3915
(dp3916
g3
g2483
sg6
S'Brudno, M.'
p3917
ssS'A150'
p3918
(dp3919
g3
g2483
sg6
S'Wigdor, D.'
p3920
ssS'A153'
p3921
(dp3922
g3
g3898
sg6
S'Holten, D.'
p3923
ssS'A152'
p3924
(dp3925
g3
(lp3926
g5
asg6
S'van den Elzen, S.'
p3927
ssS'A994'
p3928
(dp3929
g3
g486
sg6
S'Dietzsch, J.'
p3930
ssS'A1101'
p3931
(dp3932
g3
g1405
sg6
S'Riensche, R.'
p3933
ssS'A551'
p3934
(dp3935
g3
g337
sg6
S'Enxun Wei'
p3936
ssS'A550'
p3937
(dp3938
g3
g337
sg6
S'Panpan Xu'
p3939
ssS'A553'
p3940
(dp3941
g3
(lp3942
S'design study'
p3943
aS'user-centered design'
p3944
aS'node-link diagrams'
p3945
aS'multimodal graphs'
p3946
aS'interaction'
p3947
aS'qualitative evaluation'
p3948
asg6
S'Seungyoon Lee'
p3949
ssS'A552'
p3950
(dp3951
g3
g3942
sg6
S'Ghani, S.'
p3952
ssS'A555'
p3953
(dp3954
g3
g2532
sg6
S'Bak, P.'
p3955
ssS'A554'
p3956
(dp3957
g3
(lp3958
S'heuristic-based spatial clustering'
p3959
aS'interactive visual clustering'
p3960
aS'k-order a-(alpha)-shapes'
p3961
asg6
S'Packer, E.'
p3962
ssS'A557'
p3963
(dp3964
g3
g3958
sg6
S'Polishchuk, V.'
p3965
ssS'A556'
p3966
(dp3967
g3
g3958
sg6
S'Nikkila, M.'
p3968
ssS'A559'
p3969
(dp3970
g3
g2750
sg6
S'Junping Zhang'
p3971
ssS'A558'
p3972
(dp3973
g3
g3958
sg6
S'Ship, H.J.'
p3974
ssS'A1247'
p3975
(dp3976
g3
g2670
sg6
S'Lichan Hong'
p3977
ssS'A1246'
p3978
(dp3979
g3
g2963
sg6
S'Bederson, B.B.'
p3980
ssS'A1241'
p3981
(dp3982
g3
g2695
sg6
S'Bue, B.'
p3983
ssS'A1240'
p3984
(dp3985
g3
g2695
sg6
S'Pattath, A.'
p3986
ssS'A809'
p3987
(dp3988
g3
g1702
sg6
S'Dang, T.'
p3989
ssS'A808'
p3990
(dp3991
g3
g1702
sg6
S'Eckler, K.'
p3992
ssS'A490'
p3993
(dp3994
g3
g3908
sg6
S'Stephens, D.'
p3995
ssS'A747'
p3996
(dp3997
g3
(lp3998
g5
asg6
S'Navathe, S.B.'
p3999
ssS'A491'
p4000
(dp4001
g3
g3908
sg6
S'Yongjun Zheng'
p4002
ssS'A492'
p4003
(dp4004
g3
(lp4005
S'decision support systems'
p4006
aS'model validation and analysis'
p4007
aS'multivariate statistics'
p4008
aS'program analysis'
p4009
asg6
S'Broeksema, B.'
p4010
ssS'A1263'
p4011
(dp4012
g3
g567
sg6
S'Parthasarathy, S.'
p4013
ssS'A322'
p4014
(dp4015
g3
(lp4016
S'multi-relational data'
p4017
aS'visual data analysis'
p4018
aS'drug discovery'
p4019
asg6
S'Lex, A.'
p4020
ssS'A323'
p4021
(dp4022
g3
g1158
sg6
S'Streit, M.'
p4023
ssS'A320'
p4024
(dp4025
g3
g2731
sg6
S'Lionel Ni'
p4026
ssS'A321'
p4027
(dp4028
g3
g4016
sg6
S'Partl, C.'
p4029
ssS'A326'
p4030
(dp4031
g3
g4016
sg6
S'Pfister, H.'
p4032
ssS'A327'
p4033
(dp4034
g3
g4016
sg6
S'Schmalstieg, D.'
p4035
ssS'A324'
p4036
(dp4037
g3
g4016
sg6
S'Strobelt, H.'
p4038
ssS'A325'
p4039
(dp4040
g3
g4016
sg6
S'Wassermann, A.M.'
p4041
ssS'A1152'
p4042
(dp4043
g3
g315
sg6
S'Dasch, G.A.'
p4044
ssS'A494'
p4045
(dp4046
g3
g4005
sg6
S'Telea, A.'
p4047
ssS'A328'
p4048
(dp4049
g3
(lp4050
S'composite visualization'
p4051
aS'hierarchical clustering'
p4052
aS'illustrative parallel coordinates'
p4053
aS'radial trees'
p4054
aS'3d shape analysis'
p4055
asg6
S'Beham, M.'
p4056
ssS'A329'
p4057
(dp4058
g3
g4050
sg6
S'Herzner, W.'
p4059
ssS'A1122'
p4060
(dp4061
g3
g2532
sg6
S'Danon, G.'
p4062
ssS'A495'
p4063
(dp4064
g3
g4005
sg6
S'Crisafulli, P.'
p4065
ssS'A348'
p4066
(dp4067
g3
g638
sg6
S'Brown, E.T.'
p4068
ssS'A855'
p4069
(dp4070
g3
(lp4071
S'uncertainty'
p4072
aS'data transformations'
p4073
aS'principal component analysis'
p4074
aS'model fitting'
p4075
asg6
S'Yu-Hsuan Chan'
p4076
ssS'A496'
p4077
(dp4078
g3
(lp4079
S'hierarchical topic representation'
p4080
aS'topic modeling'
p4081
aS'visual analytics'
p4082
aS'rose tree'
p4083
asg6
S'Li Yu'
p4084
ssS'A349'
p4085
(dp4086
g3
(lp4087
g5
asg6
S'Ottley, A.'
p4088
ssS'A497'
p4089
(dp4090
g3
g4079
sg6
S'Zhiqiang Ma'
p4091
ssS'A1028'
p4092
(dp4093
g3
g2013
sg6
S'Bauer, T.L.'
p4094
ssS'A1069'
p4095
(dp4096
g3
g173
sg6
S'Montemayor, J.'
p4097
ssS'A887'
p4098
(dp4099
g3
g2020
sg6
S'Mokhtari, M.'
p4100
ssS'A1144'
p4101
(dp4102
g3
g2466
sg6
S'Tsigas, P.'
p4103
ssS'A1145'
p4104
(dp4105
g3
(lp4106
g5
asg6
S'Guoray Cai'
p4107
ssS'A1142'
p4108
(dp4109
g3
(lp4110
S'visual analytics'
p4111
aS'high-dimensional data'
p4112
aS'visual data mining'
p4113
aS'visualization in earth/space/ and environmental sciences'
p4114
asg6
S'Zelenyuk, A.'
p4115
ssS'A1143'
p4116
(dp4117
g3
g4110
sg6
S'Imre, D.'
p4118
ssS'A963'
p4119
(dp4120
g3
g1463
sg6
S'Hao Zhou'
p4121
ssS'A886'
p4122
(dp4123
g3
g2450
sg6
S'Spretke, D.'
p4124
ssS'A1061'
p4125
(dp4126
g3
g3764
sg6
S'Chi-Chun Pan'
p4127
ssS'A1060'
p4128
(dp4129
g3
g2905
sg6
S'Pellegrino, D.'
p4130
ssS'A1063'
p4131
(dp4132
g3
g3764
sg6
S'Junyan Luo'
p4133
ssS'A196'
p4134
(dp4135
g3
(lp4136
S'visual analytics'
p4137
aS'knowledge generation'
p4138
aS'uncertainty measures and propagation'
p4139
aS'trust building'
p4140
aS'human factors'
p4141
asg6
S'Senaratne, H.'
p4142
ssS'A1065'
p4143
(dp4144
g3
g3764
sg6
S'Turton, I.'
p4145
ssS'A885'
p4146
(dp4147
g3
(lp4148
S'visual literature analysis'
p4149
aS'visual analytics'
p4150
aS'literature fingerprinting'
p4151
asg6
S'Oelke, D.'
p4152
ssS'A451'
p4153
(dp4154
g3
g696
sg6
S'Binghan Xu'
p4155
ssS'A1066'
p4156
(dp4157
g3
g2199
sg6
S'Solomon, J.'
p4158
ssS'A1254'
p4159
(dp4160
g3
(lp4161
S'data exploration'
p4162
aS'olap'
p4163
aS'visualization'
p4164
aS'parallel coordinates'
p4165
asg6
S'Sifer, M.'
p4166
ssS'A883'
p4167
(dp4168
g3
(lp4169
S'visual analytics'
p4170
aS'financial information visualization'
p4171
aS'time series data'
p4172
aS'time series clustering'
p4173
aS'explorative analysis'
p4174
asg6
S'Jenny, M.'
p4175
ssS'A1264'
p4176
(dp4177
g3
g129
sg6
S'Mauger, J.'
p4178
ssS'A762'
p4179
(dp4180
g3
g747
sg6
S'Shi, L.'
p4181
ssS'A882'
p4182
(dp4183
g3
g4169
sg6
S'Ziegler, H.'
p4184
ssS'A739'
p4185
(dp4186
g3
g1923
sg6
S'Zhicheng Liu'
p4187
ssS'A933'
p4188
(dp4189
g3
g3385
sg6
S'Tsai-Ching Lu'
p4190
ssS'A700'
p4191
(dp4192
g3
g3456
sg6
S'Fekete, Z.'
p4193
ssS'A931'
p4194
(dp4195
g3
g2889
sg6
S'Walker, J.'
p4196
ssS'A930'
p4197
(dp4198
g3
g2889
sg6
S'Gregory, M.'
p4199
ssS'A937'
p4200
(dp4201
g3
(lp4202
g5
asg6
S'Savikhin, A.'
p4203
ssS'A936'
p4204
(dp4205
g3
(lp4206
g5
asg6
S'Rudolph, S.'
p4207
ssS'A935'
p4208
(dp4209
g3
(lp4210
g5
asg6
S'Leonard, L.'
p4211
ssS'A701'
p4212
(dp4213
g3
g429
sg6
S'Gobolos-Szabo, J.'
p4214
ssS'A763'
p4215
(dp4216
g3
g2095
sg6
S'Qi Liao'
p4217
ssS'A938'
p4218
(dp4219
g3
g3469
sg6
S'Ho Van Quan'
p4220
ssS'A702'
p4221
(dp4222
g3
g3456
sg6
S'Lukacs, A.'
p4223
ssS'A703'
p4224
(dp4225
g3
g429
sg6
S'Nagy, A.'
p4226
ssS'A346'
p4227
(dp4228
g3
(lp4229
S'view space exploration framework'
p4230
aS'interesting view problem'
p4231
aS'relevance feedback'
p4232
aS'user preference model'
p4233
asg6
S'Korkmaz, F.'
p4234
ssS'A445'
p4235
(dp4236
g3
(lp4237
S'biologic visualization'
p4238
aS'graph visualization'
p4239
aS'motif search'
p4240
aS'motif visualization'
p4241
aS'biology'
p4242
aS'mutations'
p4243
aS'pattern visualization'
p4244
asg6
S'Keul, F.'
p4245
ssS'A738'
p4246
(dp4247
g3
g1923
sg6
S'Gorg, C.'
p4248
ssS'A704'
p4249
(dp4250
g3
g429
sg6
S'Szabo, A.'
p4251
ssS'A347'
p4252
(dp4253
g3
g4229
sg6
S'Lin Shao'
p4254
ssS'A705'
p4255
(dp4256
g3
g429
sg6
S'Szabo, Z.'
p4257
ssS'A748'
p4258
(dp4259
g3
g2433
sg6
S'Chao Han'
p4260
ssS'A706'
p4261
(dp4262
g3
g429
sg6
S'Szucs, G.'
p4263
ssS'A744'
p4264
(dp4265
g3
(lp4266
g5
asg6
S'Swing, E.'
p4267
ssS'A745'
p4268
(dp4269
g3
(lp4270
g5
asg6
S'Qian, Z.C.'
p4271
ssS'A746'
p4272
(dp4273
g3
g4270
sg6
S'Li Zhang'
p4274
ssS'A707'
p4275
(dp4276
g3
g1509
sg6
S'ap Cenydd, L.'
p4277
ssS'A740'
p4278
(dp4279
g3
(lp4280
g5
asg6
S'Peca, I.'
p4281
ssS'A741'
p4282
(dp4283
g3
g4280
sg6
S'Zhi, H.'
p4284
ssS'A742'
p4285
(dp4286
g3
g4280
sg6
S'Vrotsou, K.'
p4287
ssS'A743'
p4288
(dp4289
g3
(lp4290
g5
asg6
S'Boone, K.'
p4291
ssS'A708'
p4292
(dp4293
g3
g1509
sg6
S'Pop, S.'
p4294
ssS'A444'
p4295
(dp4296
g3
g4237
sg6
S'Lenz, O.'
p4297
ssS'A709'
p4298
(dp4299
g3
g1509
sg6
S'Miles, H.'
p4300
ssS'A1192'
p4301
(dp4302
g3
(lp4303
S'web 20'
p4304
aS'javascript'
p4305
aS'scalable vector graphics'
p4306
aS'visualization components'
p4307
aS'linked view visual analytics'
p4308
asg6
S'Fugitt, J.'
p4309
ssS'A177'
p4310
(dp4311
g3
(lp4312
g5
asg6
S'Perer, A.'
p4313
ssS'A1260'
p4314
(dp4315
g3
g1254
sg6
S'Peuquet, D.'
p4316
ssS'A1261'
p4317
(dp4318
g3
(lp4319
S'infovis'
p4320
aS'parallel coordinates'
p4321
aS'multiple linked views'
p4322
aS'exploratory analysis'
p4323
asg6
S'Theron, R.'
p4324
ssS'A68'
p4325
(dp4326
g3
g2985
sg6
S'Hong Wang'
p4327
ssS'A69'
p4328
(dp4329
g3
g2985
sg6
S'Jiun-Yi Tsai'
p4330
ssS'A176'
p4331
(dp4332
g3
(lp4333
S'predictive modeling'
p4334
aS'feature selection'
p4335
aS'classification'
p4336
aS'visual analytics'
p4337
aS'high-dimensional data'
p4338
asg6
S'Krause, J.'
p4339
ssS'A64'
p4340
(dp4341
g3
(lp4342
g5
asg6
S'Jensen, V.R.'
p4343
ssS'A65'
p4344
(dp4345
g3
g870
sg6
S'Yafeng Lu'
p4346
ssS'A66'
p4347
(dp4348
g3
g2985
sg6
S'Steptoe, M.'
p4349
ssS'A67'
p4350
(dp4351
g3
g2985
sg6
S'Burke, S.'
p4352
ssS'A60'
p4353
(dp4354
g3
g3675
sg6
S'Huamin Qu'
p4355
ssS'A61'
p4356
(dp4357
g3
g4342
sg6
S'Solteszova, V.'
p4358
ssS'A62'
p4359
(dp4360
g3
g4342
sg6
S'Foscato, M.'
p4361
ssS'A63'
p4362
(dp4363
g3
g4342
sg6
S'Eliasson, S.H.'
p4364
ssS'A630'
p4365
(dp4366
g3
g529
sg6
S'Watson, L.T.'
p4367
ssS'A631'
p4368
(dp4369
g3
(lp4370
S'user interaction'
p4371
aS'visualization'
p4372
aS'sensemaking'
p4373
aS'analytic reasoning'
p4374
aS'visual analytics'
p4375
asg6
S'Fiaux, P.'
p4376
ssS'A632'
p4377
(dp4378
g3
g1328
sg6
S'Mistelbauer, G.'
p4379
ssS'A633'
p4380
(dp4381
g3
g1328
sg6
S'Bouzari, H.'
p4382
ssS'A634'
p4383
(dp4384
g3
g1328
sg6
S'Schernthaner, R.'
p4385
ssS'A635'
p4386
(dp4387
g3
g1328
sg6
S'Baclija, I.'
p4388
ssS'A636'
p4389
(dp4390
g3
g1328
sg6
S'Kochl, A.'
p4391
ssS'A637'
p4392
(dp4393
g3
g1328
sg6
S'Sramek, M.'
p4394
ssS'A638'
p4395
(dp4396
g3
g3053
sg6
S'Airong Luo'
p4397
ssS'A639'
p4398
(dp4399
g3
g3053
sg6
S'Anderson, P.F.'
p4400
ssS'A733'
p4401
(dp4402
g3
(lp4403
S'dissimilarity based classication'
p4404
aS'dissimilarity based visualization'
p4405
aS'prototypes'
p4406
aS'interactive visualization'
p4407
aS'visual analytics'
p4408
asg6
S'van Gemert, J.C.'
p4409
ssS'A732'
p4410
(dp4411
g3
g3642
sg6
S'Migut, M.'
p4412
ssS'A735'
p4413
(dp4414
g3
(lp4415
g5
asg6
S'Weil, P.'
p4416
ssS'A734'
p4417
(dp4418
g3
g4415
sg6
S'Hess, M.'
p4419
ssS'A737'
p4420
(dp4421
g3
(lp4422
g5
asg6
S'Braunstein, E.'
p4423
ssS'A736'
p4424
(dp4425
g3
g4415
sg6
S'Hamacherk, K.'
p4426
ssS'A111'
p4427
(dp4428
g3
g3102
sg6
S'Splechtna, R.'
p4429
ssS'A110'
p4430
(dp4431
g3
g704
sg6
S'Scheuermann, G.'
p4432
ssS'A113'
p4433
(dp4434
g3
g3102
sg6
S'Jelovic, M.'
p4435
ssS'A112'
p4436
(dp4437
g3
g1324
sg6
S'Gracanin, D.'
p4438
ssS'A115'
p4439
(dp4440
g3
(lp4441
S'scatterplots'
p4442
aS'user interaction'
p4443
aS'model steering'
p4444
asg6
S'Hannah Kim'
p4445
ssS'A114'
p4446
(dp4447
g3
g2261
sg6
S'Hauser, H.'
p4448
ssS'A117'
p4449
(dp4450
g3
(lp4451
S'smart card data'
p4452
aS'origin-destination (od)'
p4453
aS'spatiotemporal visualization'
p4454
aS'clustering'
p4455
aS'machine learning'
p4456
asg6
S'Yu Liang'
p4457
ssS'A116'
p4458
(dp4459
g3
g545
sg6
S'Haesun Park'
p4460
ssS'A292'
p4461
(dp4462
g3
g1367
sg6
S'Muelder, C.'
p4463
ssS'A118'
p4464
(dp4465
g3
g4451
sg6
S'Wei Wu'
p4466
ssS'A290'
p4467
(dp4468
g3
g3438
sg6
S'Collins, C.'
p4469
ssS'A291'
p4470
(dp4471
g3
g1367
sg6
S'Crnovrsanin, T.'
p4472
ssS'A296'
p4473
(dp4474
g3
g1141
sg6
S'Han Hong'
p4475
ssS'A297'
p4476
(dp4477
g3
g1141
sg6
S'Tianyu Gu'
p4478
ssS'A294'
p4479
(dp4480
g3
g1783
sg6
S'Wei Chen'
p4481
ssS'A295'
p4482
(dp4483
g3
g1141
sg6
S'Feiran Wu'
p4484
ssS'A1191'
p4485
(dp4486
g3
g4303
sg6
S'Eick, M.A.'
p4487
ssS'A1128'
p4488
(dp4489
g3
g495
sg6
S'Janoos, F.'
p4490
ssS'A1193'
p4491
(dp4492
g3
g4303
sg6
S'Horst, B.'
p4493
ssS'A534'
p4494
(dp4495
g3
g2702
sg6
S'Legg, P.A.'
p4496
ssS'A1195'
p4497
(dp4498
g3
g4303
sg6
S'Lankenau, R.A.'
p4499
ssS'A1194'
p4500
(dp4501
g3
g4303
sg6
S'Khailo, M.'
p4502
ssS'A1197'
p4503
(dp4504
g3
g1864
sg6
S'Suh, B.'
p4505
ssS'A1196'
p4506
(dp4507
g3
g4
sg6
S'Minjung Kim'
p4508
ssS'A1199'
p4509
(dp4510
g3
g1864
sg6
S'Pendleton, B.A.'
p4511
ssS'A533'
p4512
(dp4513
g3
g3564
sg6
S'Andrews, C.'
p4514
ssS'A532'
p4515
(dp4516
g3
g1191
sg6
S'Shneiderman, B.'
p4517
ssS'A595'
p4518
(dp4519
g3
g728
sg6
S'Aidong Lu'
p4520
ssS'A594'
p4521
(dp4522
g3
g1760
sg6
S'Harrison, L.'
p4523
ssS'A597'
p4524
(dp4525
g3
(lp4526
g5
asg6
S'Greer, V.'
p4527
ssS'A596'
p4528
(dp4529
g3
g2829
sg6
S'Bowman, I.'
p4530
ssS'A591'
p4531
(dp4532
g3
g224
sg6
S'Patel, C.'
p4533
ssS'A531'
p4534
(dp4535
g3
g1235
sg6
S'Plaisant, C.'
p4536
ssS'A593'
p4537
(dp4538
g3
g4270
sg6
S'Chen, Y.'
p4539
ssS'A592'
p4540
(dp4541
g3
g224
sg6
S'Hsu, M.'
p4542
ssS'A1209'
p4543
(dp4544
g3
(lp4545
g5
asg6
S'Searsmith, K.'
p4546
ssS'A1208'
p4547
(dp4548
g3
g4545
sg6
S'Searsmith, D.'
p4549
ssS'A530'
p4550
(dp4551
g3
g557
sg6
S'Hanseung Lee'
p4552
ssS'A599'
p4553
(dp4554
g3
g1054
sg6
S'Portes dos Santos Amorim, E.'
p4555
ssS'A598'
p4556
(dp4557
g3
g2829
sg6
S'Van Horn, J.D.'
p4558
ssS'A1129'
p4559
(dp4560
g3
g495
sg6
S'Singh, S.'
p4561
ssS'A849'
p4562
(dp4563
g3
g287
sg6
S'Zappa, M.'
p4564
ssS'A848'
p4565
(dp4566
g3
g287
sg6
S'Eosco, G.'
p4567
ssS'A179'
p4568
(dp4569
g3
g1079
sg6
S'Nan Cao'
p4570
ssS'A188'
p4571
(dp4572
g3
g3347
sg6
S'Gonzalez, A.'
p4573
ssS'A189'
p4574
(dp4575
g3
g32
sg6
S'Leigh, J.'
p4576
ssS'A186'
p4577
(dp4578
g3
(lp4579
S'high-dimensional spaces'
p4580
aS'exploration'
p4581
aS'support vector machines'
p4582
asg6
S'Gleicher, M.'
p4583
ssS'A187'
p4584
(dp4585
g3
g3347
sg6
S'Reda, K.'
p4586
ssS'A184'
p4587
(dp4588
g3
(lp4589
S'anomaly detection'
p4590
aS'social media'
p4591
aS'visual analysis'
p4592
asg6
S'Ching-Yung Lin'
p4593
ssS'A185'
p4594
(dp4595
g3
(lp4596
S'text visualization'
p4597
aS'topic modeling'
p4598
asg6
S'Alexander, E.'
p4599
ssS'A182'
p4600
(dp4601
g3
(lp4602
g5
asg6
S'Jie Lu'
p4603
ssS'A183'
p4604
(dp4605
g3
g1079
sg6
S'Yu-Ru Lin'
p4606
ssS'A180'
p4607
(dp4608
g3
g2410
sg6
S'Conglei Shi'
p4609
ssS'A181'
p4610
(dp4611
g3
g4589
sg6
S'Lin, S.'
p4612
ssS'A366'
p4613
(dp4614
g3
g831
sg6
S'Accorsi, P.'
p4615
ssS'A367'
p4616
(dp4617
g3
g831
sg6
S'Fabregue, M.'
p4618
ssS'A364'
p4619
(dp4620
g3
g1855
sg6
S'Madar, A.'
p4621
ssS'A365'
p4622
(dp4623
g3
g1855
sg6
S'Bonneau, R.'
p4624
ssS'A362'
p4625
(dp4626
g3
g1855
sg6
S'Arrieta-Ortiz, M.L.'
p4627
ssS'A363'
p4628
(dp4629
g3
g1855
sg6
S'Hafemeister, C.'
p4630
ssS'A360'
p4631
(dp4632
g3
g1855
sg6
S'Xi Chen'
p4633
ssS'A361'
p4634
(dp4635
g3
g1855
sg6
S'Miraldi, E.'
p4636
ssS'A1140'
p4637
(dp4638
g3
g4110
sg6
S'Eun Ju Nam'
p4639
ssS'A981'
p4640
(dp4641
g3
g3543
sg6
S'Handschuh, S.'
p4642
ssS'A368'
p4643
(dp4644
g3
g831
sg6
S'Sallaberry, A.'
p4645
ssS'A369'
p4646
(dp4647
g3
g831
sg6
S'Cernesson, F.'
p4648
ssS'A164'
p4649
(dp4650
g3
g914
sg6
S'Rohlig, M.'
p4651
ssS'A165'
p4652
(dp4653
g3
g881
sg6
S'Schumann, H.'
p4654
ssS'A166'
p4655
(dp4656
g3
(lp4657
S'high dimensional data'
p4658
aS'low-dimensional embedding'
p4659
aS'visual analytics'
p4660
aS'decision make'
p4661
aS'tradeoffs'
p4662
asg6
S'Shenghui Cheng'
p4663
ssS'A167'
p4664
(dp4665
g3
g1014
sg6
S'Yue Wang'
p4666
ssS'A160'
p4667
(dp4668
g3
g2616
sg6
S'Attfield, S.'
p4669
ssS'A208'
p4670
(dp4671
g3
g786
sg6
S'Peter, J.'
p4672
ssS'A162'
p4673
(dp4674
g3
(lp4675
g5
asg6
S'Richter, C.'
p4676
ssS'A163'
p4677
(dp4678
g3
g914
sg6
S'Luboschik, M.'
p4679
ssS'A205'
p4680
(dp4681
g3
(lp4682
g5
asg6
S'Minsuk Kahng'
p4683
ssS'A204'
p4684
(dp4685
g3
g4682
sg6
S'Shang-Tse Chen'
p4686
ssS'A207'
p4687
(dp4688
g3
g4682
sg6
S'Duen Horng Chau'
p4689
ssS'A206'
p4690
(dp4691
g3
g4682
sg6
S'Sharmin, M.'
p4692
ssS'A201'
p4693
(dp4694
g3
g1035
sg6
S'Brehmer, M.'
p4695
ssS'A169'
p4696
(dp4697
g3
g1014
sg6
S'Zhifang Jiang'
p4698
ssS'A203'
p4699
(dp4700
g3
g4682
sg6
S'Polack, P.J.'
p4701
ssS'A202'
p4702
(dp4703
g3
g1175
sg6
S'Munzner, T.'
p4704
ssS'A1234'
p4705
(dp4706
g3
g1191
sg6
S'Bilgic, M.'
p4707
ssS'A1243'
p4708
(dp4709
g3
g2695
sg6
S'Aulf, A.'
p4710
ssS'A1141'
p4711
(dp4712
g3
g4110
sg6
S'Han, Y.'
p4713
ssS'A1108'
p4714
(dp4715
g3
g660
sg6
S'Grannis, S.J.'
p4716
ssS'A1109'
p4717
(dp4718
g3
g4206
sg6
S'Wade, M.'
p4719
ssS'A988'
p4720
(dp4721
g3
g28
sg6
S'Mathiaut, M.'
p4722
ssS'A1102'
p4723
(dp4724
g3
g1405
sg6
S'Younkin, K.'
p4725
ssS'A1103'
p4726
(dp4727
g3
g4206
sg6
S'Hafen, R.'
p4728
ssS'A1100'
p4729
(dp4730
g3
g1405
sg6
S'Rice, D.M.'
p4731
ssS'A989'
p4732
(dp4733
g3
g28
sg6
S'Lambert, A.'
p4734
ssS'A1106'
p4735
(dp4736
g3
g660
sg6
S'Ouzzani, M.'
p4737
ssS'A860'
p4738
(dp4739
g3
(lp4740
S'visual analytics'
p4741
aS'visualization'
p4742
aS'reasoning process'
p4743
asg6
S'Hawkins, M.E.'
p4744
ssS'A1104'
p4745
(dp4746
g3
g4206
sg6
S'Abusalah, A.'
p4747
ssS'A1105'
p4748
(dp4749
g3
g4206
sg6
S'Yakout, M.'
p4750
ssS'A447'
p4751
(dp4752
g3
g4237
sg6
S'Hamacher, K.'
p4753
ssS'A446'
p4754
(dp4755
g3
(lp4756
g5
asg6
S'Bremm, S.'
p4757
ssS'A731'
p4758
(dp4759
g3
(lp4760
g5
asg6
S'Sheffield, D.'
p4761
ssS'A298'
p4762
(dp4763
g3
g1141
sg6
S'Long Wang'
p4764
ssS'A1204'
p4765
(dp4766
g3
g3483
sg6
S'McLean, J.'
p4767
ssS'A299'
p4768
(dp4769
g3
g355
sg6
S'Ronghua Liang'
p4770
ssS'A1139'
p4771
(dp4772
g3
g2963
sg6
S'Hyunmo Kang'
p4773
ssS'A1200'
p4774
(dp4775
g3
(lp4776
S'wikipedia'
p4777
aS'wiki'
p4778
aS'revert'
p4779
aS'graph'
p4780
aS'collaboration'
p4781
aS'user model'
p4782
aS'visualization'
p4783
asg6
S'Kittur, A.'
p4784
ssS'A443'
p4785
(dp4786
g3
g1783
sg6
S'Wentao Gu'
p4787
ssS'A863'
p4788
(dp4789
g3
(lp4790
g5
asg6
S'Jing Jin'
p4791
ssS'A566'
p4792
(dp4793
g3
g1266
sg6
S'Unger, A.'
p4794
ssS'A442'
p4795
(dp4796
g3
g1783
sg6
S'Weifeng Chen'
p4797
ssS'A1116'
p4798
(dp4799
g3
g1235
sg6
S"O'Connell, T."
p4800
ssS'A1074'
p4801
(dp4802
g3
g177
sg6
S'Benes, B.'
p4803
ssS'A441'
p4804
(dp4805
g3
g1783
sg6
S'Kun Zhou'
p4806
ssS'A730'
p4807
(dp4808
g3
g4760
sg6
S'Canfield, C.M.'
p4809
ssS'A440'
p4810
(dp4811
g3
g1783
sg6
S'Zhiqi Liu'
p4812
ssS'A1036'
p4813
(dp4814
g3
g689
sg6
S'Nan Du'
p4815
ssS'A119'
p4816
(dp4817
g3
g4451
sg6
S'Xiaohui Li'
p4818
ssS'A524'
p4819
(dp4820
g3
g10
sg6
S'Leung, R.'
p4821
ssS'A1035'
p4822
(dp4823
g3
g689
sg6
S'Bin Wu'
p4824
ssS'A1032'
p4825
(dp4826
g3
g689
sg6
S'Qi Ye'
p4827
ssS'A1033'
p4828
(dp4829
g3
g689
sg6
S'Tian Zhu'
p4830
ssS'A1030'
p4831
(dp4832
g3
(lp4833
g5
asg6
S'Pascual-Cid, V.'
p4834
ssS'A293'
p4835
(dp4836
g3
(lp4837
S'personal emotion analytics'
p4838
aS'affective and mood modeling'
p4839
aS'social media text'
p4840
aS'twitter'
p4841
aS'information visualization'
p4842
asg6
S'Fei Wang'
p4843
ssS'A862'
p4844
(dp4845
g3
g1031
sg6
S'Theisel, H.'
p4846
ssS'A567'
p4847
(dp4848
g3
g1266
sg6
S'Hege, H.-C.'
p4849
ssS'A562'
p4850
(dp4851
g3
g3040
sg6
S'Silver, D.'
p4852
ssS'A918'
p4853
(dp4854
g3
g1973
sg6
S'Chen, V.'
p4855
ssS'A1039'
p4856
(dp4857
g3
g2846
sg6
S'Quigley, A.'
p4858
ssS'A563'
p4859
(dp4860
g3
g3040
sg6
S'Heitmann, K.'
p4861
ssS'A669'
p4862
(dp4863
g3
g1367
sg6
S'Zeqian Shen'
p4864
ssS'A668'
p4865
(dp4866
g3
g3510
sg6
S'Jishang Wei'
p4867
ssS'A667'
p4868
(dp4869
g3
(lp4870
g5
asg6
S'Tekusova, M.'
p4871
ssS'A564'
p4872
(dp4873
g3
(lp4874
S'visual analytics'
p4875
aS'correlative analysis'
p4876
asg6
S'Huang, W.'
p4877
ssS'A665'
p4878
(dp4879
g3
g1851
sg6
S'Last, H.'
p4880
ssS'A664'
p4881
(dp4882
g3
g1851
sg6
S'Weber, S.'
p4883
ssS'A663'
p4884
(dp4885
g3
g1851
sg6
S'Pompl, R.'
p4886
ssS'A662'
p4887
(dp4888
g3
g1851
sg6
S'Leishi Zhang'
p4889
ssS'A661'
p4890
(dp4891
g3
g1273
sg6
S'Hongan Wang'
p4892
ssS'A565'
p4893
(dp4894
g3
g2143
sg6
S'Boubela, R.N.'
p4895
ssS'A525'
p4896
(dp4897
g3
g881
sg6
S'Hadlak, S.'
p4898
ssS'A977'
p4899
(dp4900
g3
g1273
sg6
S'Wei Liu'
p4901
ssS'A493'
p4902
(dp4903
g3
g1106
sg6
S'Baudel, T.'
p4904
ssS'A888'
p4905
(dp4906
g3
g2020
sg6
S'Boivin, E.'
p4907
ssS'A449'
p4908
(dp4909
g3
g696
sg6
S'Jing Ma'
p4910
ssS'A976'
p4911
(dp4912
g3
g1273
sg6
S'Feng Tian'
p4913
ssS'A924'
p4914
(dp4915
g3
g2881
sg6
S'Muller-Birn, C.'
p4916
ssS'A448'
p4917
(dp4918
g3
g2591
sg6
S'Yanli, E.'
p4919
ssS'A975'
p4920
(dp4921
g3
g1273
sg6
S'Xiongfei Luo'
p4922
ssS'A962'
p4923
(dp4924
g3
g1576
sg6
S'Dejgaard, K.'
p4925
ssS'A974'
p4926
(dp4927
g3
(lp4928
g5
asg6
S'Castellanos, M.'
p4929
ssS'A1190'
p4930
(dp4931
g3
g129
sg6
S'Eick, S.G.'
p4932
ssS'A973'
p4933
(dp4934
g3
(lp4935
g5
asg6
S'Bridgeman, S.'
p4936
ssS'A972'
p4937
(dp4938
g3
g3438
sg6
S'Wattenberg, M.'
p4939
ssS'A948'
p4940
(dp4941
g3
g1479
sg6
S'Granacher, C.'
p4942
ssS'A949'
p4943
(dp4944
g3
g1479
sg6
S'Butscher, S.'
p4945
ssS'A864'
p4946
(dp4947
g3
g4790
sg6
S'Szekely, P.'
p4948
ssS'A942'
p4949
(dp4950
g3
g949
sg6
S'Jankun-Kelly, T.J.'
p4951
ssS'A943'
p4952
(dp4953
g3
g949
sg6
S'Fitzpatrick, P.J.'
p4954
ssS'A940'
p4955
(dp4956
g3
g3469
sg6
S'Jern, M.'
p4957
ssS'A941'
p4958
(dp4959
g3
g949
sg6
S'Steed, C.A.'
p4960
ssS'A946'
p4961
(dp4962
g3
g2234
sg6
S'Reina, G.'
p4963
ssS'A947'
p4964
(dp4965
g3
g1479
sg6
S'Leifert, S.'
p4966
ssS'A944'
p4967
(dp4968
g3
g486
sg6
S'Heinrich, J.'
p4969
ssS'A945'
p4970
(dp4971
g3
g2234
sg6
S'Muller, C.'
p4972
ssS'A409'
p4973
(dp4974
g3
g1335
sg6
S'Gargiulo, M.F.'
p4975
ssS'A408'
p4976
(dp4977
g3
g272
sg6
S'Tory, M.'
p4978
ssS'A403'
p4979
(dp4980
g3
g999
sg6
S'Horvath, Z.'
p4981
ssS'A402'
p4982
(dp4983
g3
g999
sg6
S'Perdigao, R.A.P.'
p4984
ssS'A401'
p4985
(dp4986
g3
g999
sg6
S'Cornel, D.'
p4987
ssS'A400'
p4988
(dp4989
g3
g999
sg6
S'Sadransky, B.'
p4990
ssS'A407'
p4991
(dp4992
g3
g3361
sg6
S'Mahyar, N.'
p4993
ssS'A406'
p4994
(dp4995
g3
g4596
sg6
S'Witmore, M.'
p4996
ssS'A405'
p4997
(dp4998
g3
g4596
sg6
S'Valenza, R.'
p4999
ssS'A404'
p5000
(dp5001
g3
g4596
sg6
S'Kohlmann, J.'
p5002
ssS'A799'
p5003
(dp5004
g3
g1798
sg6
S'Ming Hao'
p5005
ssS'A798'
p5006
(dp5007
g3
g797
sg6
S'Zieker, M.'
p5008
ssS'A1198'
p5009
(dp5010
g3
g2670
sg6
S'Chi, E.H.'
p5011
ssS'A793'
p5012
(dp5013
g3
g797
sg6
S'Regenscheit, M.'
p5014
ssS'A792'
p5015
(dp5016
g3
g797
sg6
S'Ramm, T.'
p5017
ssS'A791'
p5018
(dp5019
g3
g790
sg6
S'Mansmann, F.'
p5020
ssS'A790'
p5021
(dp5022
g3
g797
sg6
S'Maass, F.'
p5023
ssS'A797'
p5024
(dp5025
g3
g797
sg6
S'Tautzenberger, M.'
p5026
ssS'A796'
p5027
(dp5028
g3
g797
sg6
S'Sellien, S.'
p5029
ssS'A795'
p5030
(dp5031
g3
g797
sg6
S'Scheible, C.'
p5032
ssS'A794'
p5033
(dp5034
g3
g1798
sg6
S'Rohrdantz, C.'
p5035
ssS'A15'
p5036
(dp5037
g3
(lp5038
g5
asg6
S'Yokoyama, D.'
p5039
ssS'A14'
p5040
(dp5041
g3
g2032
sg6
S'Itoh, M.'
p5042
ssS'A17'
p5043
(dp5044
g3
g2032
sg6
S'Kitsuregawa, M.'
p5045
ssS'A16'
p5046
(dp5047
g3
g2032
sg6
S'Toyoda, M.'
p5048
ssS'A11'
p5049
(dp5050
g3
g303
sg6
S'Cook, K.A.'
p5051
ssS'A10'
p5052
(dp5053
g3
g3587
sg6
S'Laidlaw, D.H.'
p5054
ssS'A13'
p5055
(dp5056
g3
g1235
sg6
S'Whiting, M.'
p5057
ssS'A12'
p5058
(dp5059
g3
g1235
sg6
S'Scholtz, J.'
p5060
ssS'A498'
p5061
(dp5062
g3
g1601
sg6
S'Willett, W.'
p5063
ssS'A499'
p5064
(dp5065
g3
g1601
sg6
S'Ginosar, S.'
p5066
ssS'A520'
p5067
(dp5068
g3
g2387
sg6
S'Barrett, L.'
p5069
ssS'A884'
p5070
(dp5071
g3
g4169
sg6
S'Gruse, T.'
p5072
ssS'A19'
p5073
(dp5074
g3
g747
sg6
S'Shixia Liu'
p5075
ssS'A18'
p5076
(dp5077
g3
g3129
sg6
S'Mengchen Liu'
p5078
ssS'A881'
p5079
(dp5080
g3
g3208
sg6
S'Patnaik, D.'
p5081
ssS'A880'
p5082
(dp5083
g3
g4928
sg6
S'Sharma, R.'
p5084
ssS'A1'
p5085
(dp5086
g3
g2440
sg6
S'Lawonn, K.'
p5087
ssS'A0'
p5088
(dp5089
g3
g2440
sg6
S'Klemm, P.'
p5090
ssS'A3'
p5091
(dp5092
g3
(lp5093
S'interactive visual analysis'
p5094
aS'regression analysis'
p5095
aS'heat map'
p5096
aS'epidemiology'
p5097
aS'breast cancer'
p5098
aS'hepatic steatosis'
p5099
asg6
S'Niemann, U.'
p5100
ssS'A2'
p5101
(dp5102
g3
g5093
sg6
S'Glaer, S.'
p5103
ssS'A5'
p5104
(dp5105
g3
g5093
sg6
S'Volzke, H.'
p5106
ssS'A4'
p5107
(dp5108
g3
g2440
sg6
S'Hegenscheid, K.'
p5109
ssS'A7'
p5110
(dp5111
g3
g3587
sg6
S'Hua Guo'
p5112
ssS'A6'
p5113
(dp5114
g3
g2440
sg6
S'Preim, B.'
p5115
ssS'A9'
p5116
(dp5117
g3
g187
sg6
S'Ziemkiewicz, C.'
p5118
ssS'A8'
p5119
(dp5120
g3
(lp5121
S'evaluation methodology'
p5122
aS'insight-based evaluation'
p5123
aS'visual analytics'
p5124
aS'network visualization'
p5125
aS'information visualization'
p5126
asg6
S'Gomez, S.R.'
p5127
ssS'A241'
p5128
(dp5129
g3
g2114
sg6
S'Wewnen Dou'
p5130
ssS'A240'
p5131
(dp5132
g3
g1385
sg6
S'Ertl, T.'
p5133
ssS'A243'
p5134
(dp5135
g3
g2114
sg6
S'Sauda, E.'
p5136
ssS'A242'
p5137
(dp5138
g3
g2114
sg6
S'Wang, D.X.'
p5139
ssS'A245'
p5140
(dp5141
g3
(lp5142
S'visual analytics'
p5143
aS'evaluation'
p5144
aS'user studies'
p5145
aS'ontology'
p5146
aS'experiments'
p5147
aS'interaction'
p5148
aS'virtual reality'
p5149
aS'visualization'
p5150
asg6
S'Gutenko, I.'
p5151
ssS'A244'
p5152
(dp5153
g3
g5142
sg6
S'Papadopoulos, C.'
p5154
ssS'A247'
p5155
(dp5156
g3
(lp5157
S'online health communities'
p5158
aS'visual analytics'
p5159
aS'conversation analysis'
p5160
aS'thread visualization'
p5161
aS'healthcare'
p5162
aS'design study'
p5163
asg6
S'Sung-Hee Kim'
p5164
ssS'A246'
p5165
(dp5166
g3
g921
sg6
S'Kaufman, A.'
p5167
ssS'A249'
p5168
(dp5169
g3
g5157
sg6
S'Jina Huh'
p5170
ssS'A248'
p5171
(dp5172
g3
g5157
sg6
S'Sukwon Lee'
p5173
ssS'A1259'
p5174
(dp5175
g3
g1254
sg6
S'Holdsworth, D.'
p5176
ssS'A1203'
p5177
(dp5178
g3
g3483
sg6
S'Schwendiman, L.'
p5179
ssS'A539'
p5180
(dp5181
g3
g2702
sg6
S'Griffiths, I.W.'
p5182
ssS'A538'
p5183
(dp5184
g3
g2702
sg6
S'Jones, M.W.'
p5185
ssS'A128'
p5186
(dp5187
g3
(lp5188
S'integrating spatial and non-spatial data visualization'
p5189
aS'visualization in physical sciences and engineering'
p5190
aS'coordinated and multiple views'
p5191
aS'visual knowledge discovery'
p5192
asg6
S'Luksch, C.'
p5193
ssS'A129'
p5194
(dp5195
g3
g5188
sg6
S'Schwarzler, M.'
p5196
ssS'A1202'
p5197
(dp5198
g3
g24
sg6
S'Kuan, W.'
p5199
ssS'A120'
p5200
(dp5201
g3
g4451
sg6
S'Guangxia Li'
p5202
ssS'A121'
p5203
(dp5204
g3
g4451
sg6
S'Wee Siong Ng'
p5205
ssS'A122'
p5206
(dp5207
g3
g4451
sg6
S'See-Kiong Ng'
p5208
ssS'A123'
p5209
(dp5210
g3
g4451
sg6
S'Zhongwen Huang'
p5211
ssS'A124'
p5212
(dp5213
g3
g4451
sg6
S'Arunan, A.'
p5214
ssS'A125'
p5215
(dp5216
g3
g4451
sg6
S'Hui Min Watt'
p5217
ssS'A126'
p5218
(dp5219
g3
g5188
sg6
S'Sorger, J.'
p5220
ssS'A127'
p5221
(dp5222
g3
g5188
sg6
S'Ortner, T.'
p5223
ssS'A1255'
p5224
(dp5225
g3
(lp5226
S'visual analytics'
p5227
aS'intelligence analysis'
p5228
aS'problemsolving environments'
p5229
aS'visual knowledge discovery'
p5230
asg6
S'Chen, C.'
p5231
ssS'A1207'
p5232
(dp5233
g3
g4545
sg6
S'Llora, X.'
p5234
ssS'A522'
p5235
(dp5236
g3
g2387
sg6
S'Henzi, P.'
p5237
ssS'A1216'
p5238
(dp5239
g3
g1650
sg6
S'Bartling, U.'
p5240
ssS'A802'
p5241
(dp5242
g3
g1716
sg6
S'Guy, I.'
p5243
ssS'A1206'
p5244
(dp5245
g3
g4545
sg6
S'Auvil, L.'
p5246
ssS'A832'
p5247
(dp5248
g3
(lp5249
g5
asg6
S'Brady, R.'
p5250
ssS'A833'
p5251
(dp5252
g3
g5249
sg6
S'Maggioni, M.'
p5253
ssS'A830'
p5254
(dp5255
g3
g5249
sg6
S'Monson, E.E.'
p5256
ssS'A831'
p5257
(dp5258
g3
g5249
sg6
S'Guangliang Chen'
p5259
ssS'A836'
p5260
(dp5261
g3
(lp5262
S'computational journalism'
p5263
aS'computer assisted reporting'
p5264
aS'social media'
p5265
aS'sensemaking'
p5266
asg6
S'Kivran-Swaine, F.'
p5267
ssS'A837'
p5268
(dp5269
g3
g272
sg6
S'Ingram, S.'
p5270
ssS'A834'
p5271
(dp5272
g3
g5262
sg6
S'Diakopoulos, N.'
p5273
ssS'A835'
p5274
(dp5275
g3
g5262
sg6
S'Naaman, M.'
p5276
ssS'A1256'
p5277
(dp5278
g3
g5226
sg6
S'Ibekwe-SanJuan, F.'
p5279
ssS'A1257'
p5280
(dp5281
g3
g5226
sg6
S'SanJuan, E.'
p5282
ssS'A838'
p5283
(dp5284
g3
g272
sg6
S'Irvine, V.'
p5285
ssS'A839'
p5286
(dp5287
g3
g272
sg6
S'Bergner, S.'
p5288
ssS'A1252'
p5289
(dp5290
g3
g921
sg6
S'Zelinsky, G.'
p5291
ssS'A1253'
p5292
(dp5293
g3
g921
sg6
S'Warren, D.S.'
p5294
ssS'A1250'
p5295
(dp5296
g3
g402
sg6
S'Yuli Gao'
p5297
ssS'A1251'
p5298
(dp5299
g3
g921
sg6
S'Brennan, S.E.'
p5300
ss.