(dp0
S'A1150'
p1
S'Ho, K.'
p2
sS'A523'
p3
S'Hajizadeh, A.H.'
p4
sS'A1147'
p5
S'Kim, M.'
p6
sS'A1201'
p7
S'Enns, P.'
p8
sS'A987'
p9
S'Trung-Tien Phan-Quang'
p10
sS'A914'
p11
S'Chau, D.'
p12
sS'A234'
p13
S'Silva, C.T.'
p14
sS'A235'
p15
S'Perkins, M.'
p16
sS'A236'
p17
S'Yanlai Chen'
p18
sS'A237'
p19
S'Blascheck, T.'
p20
sS'A230'
p21
S'Vo, H.T.'
p22
sS'A231'
p23
S'Wilson, L.'
p24
sS'A232'
p25
S'Werner, H.'
p26
sS'A233'
p27
S'Park, M.'
p28
sS'A335'
p29
S'Hanjun Xian'
p30
sS'A334'
p31
S'Yuetling Wong'
p32
sS'A337'
p33
S'Johri, A.'
p34
sS'A336'
p35
S'Zhihua Dong'
p36
sS'A238'
p37
S'John, M.'
p38
sS'A239'
p39
S'Kurzhals, K.'
p40
sS'A333'
p41
S'Xin Chen'
p42
sS'A332'
p43
S'Vorvoreanu, M.'
p44
sS'A1230'
p45
S'Tandon, S.'
p46
sS'A1265'
p47
S'Ratner, A.'
p48
sS'A1173'
p49
S'Rosenblum, L.'
p50
sS'A1172'
p51
S'Kielman, J.'
p52
sS'A1078'
p53
S'Ling Xiao'
p54
sS'A1079'
p55
S'Gerth, J.'
p56
sS'A1177'
p57
S'Telles, G.P.'
p58
sS'A1176'
p59
S'Minghim, R.'
p60
sS'A1175'
p61
S'Paulovich, F.V.'
p62
sS'A1174'
p63
S'Cuadros, A.M.'
p64
sS'A1072'
p65
S'Patrone, D.'
p66
sS'A1073'
p67
S'Andrysco, N.'
p68
sS'A1070'
p69
S'Diehl, C.'
p70
sS'A1071'
p71
S'Pekala, M.'
p72
sS'A1076'
p73
S'Kosara, R.'
p74
sS'A1077'
p75
S'Sye-Min Chan'
p76
sS'A759'
p77
S'Pinaud, B.'
p78
sS'A1075'
p79
S'Gurney, K.'
p80
sS'A1238'
p81
S'Chin, G.'
p82
sS'A1239'
p83
S'Aggarwal, V.'
p84
sS'A990'
p85
S'DuBois, J.'
p86
sS'A590'
p87
S'Felix, C.'
p88
sS'A842'
p89
S'Mock, M.'
p90
sS'A898'
p91
S'Massjouni, N.'
p92
sS'A758'
p93
S'Ruiz, C.'
p94
sS'A841'
p95
S'Mladenov, M.'
p96
sS'A899'
p97
S'Kanna, R.'
p98
sS'A519'
p99
S'Ruchikachorn, P.'
p100
sS'A840'
p101
S'MAller, T.'
p102
sS'A908'
p103
S'Yi Han'
p104
sS'A909'
p105
S'Stuntebeck, E.P.'
p106
sS'A906'
p107
S'Livingston, M.A.'
p108
sS'A847'
p109
S'Gutman, M.'
p110
sS'A904'
p111
S'Decker, J.W.'
p112
sS'A905'
p113
S'Godwin, A.'
p114
sS'A902'
p115
S'Rohrer, R.M.'
p116
sS'A903'
p117
S'Foote, H.'
p118
sS'A900'
p119
S'Pak Chung Wong'
p120
sS'A846'
p121
S'Shaw, C.'
p122
sS'A894'
p123
S'Harding, S.'
p124
sS'A845'
p125
S'Ji-Dong Yim'
p126
sS'A895'
p127
S'Enguehard, R.'
p128
sS'A339'
p129
S'Yingcai Wu'
p130
sS'A844'
p131
S'Joorabchi, M.E.'
p132
sS'A1232'
p133
S'Schroh, D.'
p134
sS'A518'
p135
S'Bing Wang'
p136
sS'A338'
p137
S'Guodao Sun'
p138
sS'A696'
p139
S'Icke, I.'
p140
sS'A697'
p141
S'Rosenberg, A.'
p142
sS'A694'
p143
S'Varun Jain'
p144
sS'A695'
p145
S'Gad, S.'
p146
sS'A692'
p147
S'Esteva, M.'
p148
sS'A693'
p149
S'Suyog Dutt Jain'
p150
sS'A690'
p151
S'Lamagna, W.M.'
p152
sS'A691'
p153
S'Weijia Xu'
p154
sS'A757'
p155
S'Rundensteiner, E.A.'
p156
sS'A756'
p157
S'Ward, M.O.'
p158
sS'A755'
p159
S'Zhenyu Guo'
p160
sS'A754'
p161
S'Marai, G.E.'
p162
sS'A753'
p163
S'Wenskovitch, J.E.'
p164
sS'A752'
p165
S'Rothenberger, S.D.'
p166
sS'A698'
p167
S'Banfi, N.'
p168
sS'A699'
p169
S'Dudas, L.'
p170
sS'A51'
p171
S'Lei Shi'
p172
sS'A50'
p173
S'Yifan Hu'
p174
sS'A53'
p175
S'Yutao Zhang'
p176
sS'A52'
p177
S'Xinzhu Mu'
p178
sS'A55'
p179
S'Yanhong Wu'
p180
sS'A54'
p181
S'Jie Tang'
p182
sS'A57'
p183
S'Jian Zhao'
p184
sS'A56'
p185
S'Pitipornvivat, N.'
p186
sS'A59'
p187
S'Guowei Huang'
p188
sS'A58'
p189
S'Sixiao Yang'
p190
sS'A1237'
p191
S'Huang Shiping'
p192
sS'A817'
p193
S'Hanrahan, P.'
p194
sS'A995'
p195
S'Nieselt, K.'
p196
sS'A1132'
p197
S'Parent, R.'
p198
sS'A331'
p199
S'Madhavan, K.'
p200
sS'A330'
p201
S'Gotz, D.'
p202
sS'A623'
p203
S'Jankowska, M.'
p204
sS'A622'
p205
S'Gramazio, C.'
p206
sS'A621'
p207
S'Davey, J.'
p208
sS'A620'
p209
S'Dill, J.'
p210
sS'A627'
p211
S'Ojili, P.K.R.'
p212
sS'A626'
p213
S'Hossain, M.S.'
p214
sS'A625'
p215
S'Milios, E.'
p216
sS'A624'
p217
S'Keselj, V.'
p218
sS'A999'
p219
S'Bohn, S.'
p220
sS'A998'
p221
S'Walteros, P.R.'
p222
sS'A629'
p223
S'Muller, R.'
p224
sS'A628'
p225
S'Grimm, C.'
p226
sS'A1262'
p227
S'Mehta, S.'
p228
sS'A1229'
p229
S'Kesheng Wu'
p230
sS'A472'
p231
S'Wei Zeng'
p232
sS'A473'
p233
S'Chi-Wing Fu'
p234
sS'A470'
p235
S'Huntzinger, D.N.'
p236
sS'A471'
p237
S'Cook, R.'
p238
sS'A476'
p239
S'Landstorfer, J.'
p240
sS'A477'
p241
S'Herrmann, I.'
p242
sS'A474'
p243
S'Arisona, S.M.'
p244
sS'A475'
p245
S'Erath, A.'
p246
sS'A573'
p247
S'Crouser, R.J.'
p248
sS'A572'
p249
S'Ahmed, Z.'
p250
sS'A478'
p251
S'Stange, J.-E.'
p252
sS'A479'
p253
S'Dork, M.'
p254
sS'A577'
p255
S'Jingjing Liu'
p256
sS'A576'
p257
S'Fisher, B.'
p258
sS'A575'
p259
S'Riecke, B.E.'
p260
sS'A574'
p261
S'Calderon, N.A.'
p262
sS'A967'
p263
S'Wright, B.'
p264
sS'A1183'
p265
S'Gigitashvilli, S.'
p266
sS'A1107'
p267
S'Cleveland, W.S.'
p268
sS'A1181'
p269
S'Jae Choi'
p270
sS'A1186'
p271
S'Hertzog, P.'
p272
sS'A1187'
p273
S'Lalanne, D.'
p274
sS'A1184'
p275
S'Wilson, J.'
p276
sS'A1185'
p277
S'Catravas, P.'
p278
sS'A1188'
p279
S'Bailey, S.J.'
p280
sS'A1037'
p281
S'Bai Wang'
p282
sS'A997'
p283
S'Fujimoto, E.'
p284
sS'A450'
p285
S'Yahui Zhao'
p286
sS'A877'
p287
S'Weber, G.H.'
p288
sS'A874'
p289
S'Oesterling, P.'
p290
sS'A875'
p291
S'Teresniak, S.'
p292
sS'A872'
p293
S'Wall, J.'
p294
sS'A873'
p295
S'Boukhelifa, N.'
p296
sS'A870'
p297
S'Overby, D.'
p298
sS'A871'
p299
S'Keyser, J.'
p300
sS'A1245'
p301
S'Weichao Wang'
p302
sS'A1218'
p303
S'Mellema, A.'
p304
sS'A1219'
p305
S'Collins, T.'
p306
sS'A878'
p307
S'Li Tan'
p308
sS'A879'
p309
S'Xiaoxiao Lian'
p310
sS'A199'
p311
S'Jun Wang'
p312
sS'A198'
p313
S'Ellis, G.'
p314
sS'A780'
p315
S'Buck-Coleman, A.'
p316
sS'A191'
p317
S'Jackle, D.'
p318
sS'A209'
p319
S'Szigeti, S.'
p320
sS'A193'
p321
S'Schreck, T.'
p322
sS'A192'
p323
S'Fischer, F.'
p324
sS'A195'
p325
S'Sacha, D.'
p326
sS'A194'
p327
S'Keim, D.A.'
p328
sS'A197'
p329
S'Bum Chul Kwon'
p330
sS'A161'
p331
S'Fields, B.'
p332
sS'A371'
p333
S'Braud, A.'
p334
sS'A370'
p335
S'Lalande, N.'
p336
sS'A373'
p337
S'Le Ber, F.'
p338
sS'A372'
p339
S'Bringay, S.'
p340
sS'A375'
p341
S'Teisseire, M.'
p342
sS'A374'
p343
S'Poncelet, P.'
p344
sS'A377'
p345
S'Kruger, R.'
p346
sS'A376'
p347
S'Bertini, E.'
p348
sS'A379'
p349
S'Feng Wang'
p350
sS'A378'
p351
S'Thom, D.'
p352
sS'A526'
p353
S'Cap, C.H.'
p354
sS'A278'
p355
S'Aigner, W.'
p356
sS'A279'
p357
S'Rind, A.'
p358
sS'A175'
p359
S'Miksch, S.'
p360
sS'A174'
p361
S'Alsallakh, B.'
p362
sS'A173'
p363
S'Bogl, M.'
p364
sS'A172'
p365
S'Kirste, T.'
p366
sS'A171'
p367
S'Kruger, F.'
p368
sS'A170'
p369
S'Mueller, K.'
p370
sS'A270'
p371
S'Samuels, L.R.'
p372
sS'A271'
p373
S'Greevy, R.A.'
p374
sS'A272'
p375
S'Anreddy, S.'
p376
sS'A273'
p377
S'Song Zhang'
p378
sS'A274'
p379
S'Mercer, A.'
p380
sS'A275'
p381
S'Dyer, J.'
p382
sS'A276'
p383
S'Swan, J.E.'
p384
sS'A178'
p385
S'Stavropoulos, H.'
p386
sS'A1137'
p387
S'Tesone, D.R.'
p388
sS'A1136'
p389
S'Satoh, S.'
p390
sS'A1135'
p391
S'Jianping Fan'
p392
sS'A1134'
p393
S'Hangzai Luo'
p394
sS'A1133'
p395
S'Di Yang'
p396
sS'A399'
p397
S'Waser, J.'
p398
sS'A1131'
p399
S'Machiraju, R.'
p400
sS'A1130'
p401
S'Irfanoglu, O.'
p402
sS'A168'
p403
S'Dan Zhang'
p404
sS'A398'
p405
S'Konev, A.'
p406
sS'A1171'
p407
S'Dongning Luo'
p408
sS'A751'
p409
S'Eisemann, M.'
p410
sS'A200'
p411
S'Fulda, J.'
p412
sS'A285'
p413
S'Dias, F.'
p414
sS'A284'
p415
S'Valdivia, P.'
p416
sS'A287'
p417
S'Nonato, L.G.'
p418
sS'A286'
p419
S'Petronetto, F.'
p420
sS'A281'
p421
S'Palomo, C.'
p422
sS'A280'
p423
S'Lammarsch, T.'
p424
sS'A283'
p425
S'Freire, J.'
p426
sS'A282'
p427
S'Zhan Guo'
p428
sS'A289'
p429
S'Yale Song'
p430
sS'A288'
p431
S'Zhen Wen'
p432
sS'A728'
p433
S'Yauilla, A.R.'
p434
sS'A528'
p435
S'Monroe, M.'
p436
sS'A729'
p437
S'Su, S.L.'
p438
sS'A750'
p439
S'Hemery, P.'
p440
sS'A876'
p441
S'Heyer, G.'
p442
sS'A529'
p443
S'Rongjian Lan'
p444
sS'A304'
p445
S'Ken, S.'
p446
sS'A305'
p447
S'Laprie, A.'
p448
sS'A306'
p449
S'Buhler, k.'
p450
sS'A307'
p451
S'Sungahn Ko'
p452
sS'A300'
p453
S'Hujun Bao'
p454
sS'A301'
p455
S'Nunes, M.'
p456
sS'A302'
p457
S'Rowland, B.'
p458
sS'A303'
p459
S'Schlachter, M.'
p460
sS'A390'
p461
S'Sedlmair, M.'
p462
sS'A308'
p463
S'Afzal, S.'
p464
sS'A309'
p465
S'Walton, S.'
p466
sS'A1178'
p467
S'Lam, H.'
p468
sS'A649'
p469
S'Smuc, M.'
p470
sS'A723'
p471
S'Getoor, L.'
p472
sS'A1003'
p473
S'Vieland, V.J.'
p474
sS'A1002'
p475
S'Han-Wei Shen'
p476
sS'A1001'
p477
S'Sang-Cheol Seok'
p478
sS'A1000'
p479
S'Nouanesengsy, B.'
p480
sS'A1007'
p481
S'Haack, J.'
p482
sS'A1006'
p483
S'Sravanthi, K.'
p484
sS'A1005'
p485
S'Agrawal, S.'
p486
sS'A1004'
p487
S'Grinstein, G.'
p488
sS'A1090'
p489
S'Yujie Liu'
p490
sS'A1009'
p491
S'Thomas, J.'
p492
sS'A1008'
p493
S'Varley, C.'
p494
sS'A1258'
p495
S'Fyfe, D.'
p496
sS'A1091'
p497
S'Jacobs, D.'
p498
sS'A454'
p499
S'Kothur, P.'
p500
sS'A658'
p501
S'Dongxing Teng'
p502
sS'A659'
p503
S'Haiyan Yang'
p504
sS'A455'
p505
S'Sips, M.'
p506
sS'A652'
p507
S'Vachon, F.'
p508
sS'A653'
p509
S'Gagnon, J.'
p510
sS'A650'
p511
S'Mayr, E.'
p512
sS'A651'
p513
S'Chamberland, C.'
p514
sS'A656'
p515
S'Green, T.M.'
p516
sS'A456'
p517
S'Dobslaw, H.'
p518
sS'A654'
p519
S'Banbury, S.'
p520
sS'A655'
p521
S'Tremblay, S.'
p522
sS'A457'
p523
S'Dransch, D.'
p524
sS'A99'
p525
S'Matkovic, K.'
p526
sS'A98'
p527
S'Groller, E.'
p528
sS'A95'
p529
S'Ferracutti, G.'
p530
sS'A94'
p531
S'Gargiulo, F.'
p532
sS'A97'
p533
S'Bjerg, E.'
p534
sS'A96'
p535
S'Castro, S.'
p536
sS'A91'
p537
S'Mniszewski, S.'
p538
sS'A90'
p539
S'Xue Wu'
p540
sS'A93'
p541
S'Lujan Ganuza, M.'
p542
sS'A92'
p543
S'Kwan-Liu Ma'
p544
sS'A955'
p545
S'Pedreschi, D.'
p546
sS'A954'
p547
S'Nanni, M.'
p548
sS'A957'
p549
S'Giereth, M.'
p550
sS'A956'
p551
S'Giannotti, F.'
p552
sS'A951'
p553
S'Tarkkanen, S.'
p554
sS'A452'
p555
S'Liting Sun'
p556
sS'A953'
p557
S'Hakanen, J.'
p558
sS'A952'
p559
S'Miettinen, K.'
p560
sS'A1098'
p561
S'Franklin, L.'
p562
sS'A453'
p563
S'Jinyan Chen'
p564
sS'A959'
p565
S'Dunlavy, D.M.'
p566
sS'A856'
p567
S'Correa, C.'
p568
sS'A1099'
p569
S'May, R.'
p570
sS'A1233'
p571
S'Keel, P.E.'
p572
sS'A969'
p573
S'Steckman, M.'
p574
sS'A511'
p575
S'Schultz, T.'
p576
sS'A857'
p577
S'Tomaszewski, B.'
p578
sS'A510'
p579
S'Kohlhammer, J.'
p580
sS'A964'
p581
S'Shaverdian, A.A.'
p582
sS'A513'
p583
S'Bosch, H.'
p584
sS'A965'
p585
S'Jagadish, H.V.'
p586
sS'A512'
p587
S'Kindlmann, G.'
p588
sS'A966'
p589
S'Michailidis, G.'
p590
sS'A950'
p591
S'Jungk, P.'
p592
sS'A483'
p593
S'Auzinger, T.'
p594
sS'A482'
p595
S'Preiner, R.'
p596
sS'A481'
p597
S'Schmidt, J.'
p598
sS'A480'
p599
S'Wettach, R.'
p600
sS'A487'
p601
S'Slingsby, A.'
p602
sS'A486'
p603
S'Walker, R.'
p604
sS'A485'
p605
S'Bruckner, S.'
p606
sS'A484'
p607
S'Wimmer, T.'
p608
sS'A960'
p609
S'Shead, T.'
p610
sS'A489'
p611
S'Wood, J.'
p612
sS'A488'
p613
S'Dykes, J.'
p614
sS'A722'
p615
S'Namata, G.'
p616
sS'A713'
p617
S'Bauer, J.'
p618
sS'A712'
p619
S'Roberts, J.C.'
p620
sS'A711'
p621
S'Teahan, W.'
p622
sS'A710'
p623
S'Hughes, C.'
p624
sS'A717'
p625
S'Hurter, C.'
p626
sS'A716'
p627
S'Freeman, J.G.'
p628
sS'A715'
p629
S'Ebert, A.'
p630
sS'A714'
p631
S'Thelen, S.'
p632
sS'A719'
p633
S'Wrobel, S.'
p634
sS'A718'
p635
S'Rinzivillo, S.'
p636
sS'A961'
p637
S'Kincaid, R.'
p638
sS'A1217'
p639
S'SungYe Kim'
p640
sS'A502'
p641
S'Agrawala, M.'
p642
sS'A503'
p643
S'Balakrishnan, R.'
p644
sS'A500'
p645
S'Steinitz, A.'
p646
sS'A501'
p647
S'Hartmann, B.'
p648
sS'A506'
p649
S'Bernard, J.'
p650
sS'A507'
p651
S'Wilhelm, N.'
p652
sS'A504'
p653
S'Meghdadi, A.H.'
p654
sS'A505'
p655
S'Irani, P.'
p656
sS'A1158'
p657
S'Stanton, E.'
p658
sS'A508'
p659
S'Kruger, B.'
p660
sS'A509'
p661
S'May, T.'
p662
sS'A527'
p663
S'Wollenberg, T.'
p664
sS'A958'
p665
S'Crossno, P.'
p666
sS'A139'
p667
S'Andrienko, N.'
p668
sS'A138'
p669
S'Roskosch, P.'
p670
sS'A133'
p671
S'Wolverton, M.'
p672
sS'A132'
p673
S'Israel, D.'
p674
sS'A131'
p675
S'Cramer, N.'
p676
sS'A130'
p677
S'Piringer, H.'
p678
sS'A137'
p679
S'Brodkorb, F.'
p680
sS'A136'
p681
S'von Landesberger, T.'
p682
sS'A135'
p683
S'Burtner, R.'
p684
sS'A134'
p685
S'Bruce, J.'
p686
sS'A807'
p687
S'Endicott-Popovsky, B.'
p688
sS'A657'
p689
S'Kachkaev, A.'
p690
sS'A806'
p691
S'Lemieux, V.'
p692
sS'A1231'
p693
S'Bodnar, A.'
p694
sS'A805'
p695
S'Jacovi, M.'
p696
sS'A436'
p697
S'Zhao-Peng Meng'
p698
sS'A437'
p699
S''
p700
sS'A434'
p701
S'Jie Li'
p702
sS'A435'
p703
S'Kang Zhang'
p704
sS'A432'
p705
S'Kennedy, S.'
p706
sS'A433'
p707
S'Tolone, W.'
p708
sS'A430'
p709
S'Van Riper, D.'
p710
sS'A431'
p711
S'Gaither, K.'
p712
sS'A825'
p713
S'Yizhou Yu'
p714
sS'A803'
p715
S'Uziel, E.'
p716
sS'A827'
p717
S'Ryan, R.'
p718
sS'A826'
p719
S'Baoquan Chen'
p720
sS'A821'
p721
S'Morris, M.R.'
p722
sS'A820'
p723
S'Fisher, D.'
p724
sS'A438'
p725
S'Haidong Chen'
p726
sS'A439'
p727
S'Honghui Mei'
p728
sS'A801'
p729
S'Mei-Chun Hsu'
p730
sS'A800'
p731
S'Haug, L.'
p732
sS'A227'
p733
S'Ferreira, N.'
p734
sS'A226'
p735
S'Veas, E.'
p736
sS'A225'
p737
S'Sabol, V.'
p738
sS'A224'
p739
S'di Sciascio, C.'
p740
sS'A223'
p741
S'Wen-Chin Chen'
p742
sS'A222'
p743
S'Hsu, W.'
p744
sS'A221'
p745
S'Yin-Hsi Kuo'
p746
sS'A220'
p747
S'Wen-Feng Cheng'
p748
sS'A340'
p749
S'Tai-Quan Peng'
p750
sS'A341'
p751
S'Zhu, J.J.H.'
p752
sS'A342'
p753
S'Janetzko, H.'
p754
sS'A343'
p755
S'Stein, M.'
p756
sS'A344'
p757
S'Deussen, O.'
p758
sS'A345'
p759
S'Behrisch, M.'
p760
sS'A229'
p761
S'Doraiswamy, H.'
p762
sS'A228'
p763
S'Lage, M.'
p764
sS'A1047'
p765
S'Bodnar, J.W.'
p766
sS'A1046'
p767
S'Card, S.K.'
p768
sS'A1045'
p769
S'Oganov, A.R.'
p770
sS'A1044'
p771
S'Valle, M.'
p772
sS'A1043'
p773
S'Wright, W.'
p774
sS'A1042'
p775
S'Harper, R.'
p776
sS'A1041'
p777
S'Eccles, R.'
p778
sS'A1040'
p779
S'Kapler, T.'
p780
sS'A1049'
p781
S'Brusilovsky, P.'
p782
sS'A1048'
p783
S'Jae-wook Ahn'
p784
sS'A1228'
p785
S'Stockinger, K.'
p786
sS'A1168'
p787
S'Nehme, R.R.V.'
p788
sS'A1169'
p789
S'Glickman, L.T.'
p790
sS'A907'
p791
S'Royle, D.'
p792
sS'A1164'
p793
S'Parekh, N.'
p794
sS'A1165'
p795
S'Singhal, K.'
p796
sS'A1166'
p797
S'Tyner, B.'
p798
sS'A1167'
p799
S'Cheng Zheng'
p800
sS'A1160'
p801
S'Moreland, K.'
p802
sS'A1161'
p803
S'Baumes, J.'
p804
sS'A1162'
p805
S'Geveci, B.'
p806
sS'A1163'
p807
S'Morent, D.'
p808
sS'A1226'
p809
S'Campbell, S.'
p810
sS'A1249'
p811
S'Hubball, D.'
p812
sS'A749'
p813
S'Fekete, J.'
p814
sS'A984'
p815
S'Zaidi, F.'
p816
sS'A986'
p817
S'Gilbert, F.'
p818
sS'A901'
p819
S'Mackey, P.'
p820
sS'A843'
p821
S'Politz, C.'
p822
sS'A919'
p823
S'Dunsmuir, D.'
p824
sS'A858'
p825
S'Lipford, H.R.'
p826
sS'A859'
p827
S'Stukes, F.'
p828
sS'A911'
p829
S'Kisilevich, S.'
p830
sS'A910'
p831
S'Abowd, G.'
p832
sS'A913'
p833
S'Johnson, A.'
p834
sS'A912'
p835
S'Yiwen Sun'
p836
sS'A915'
p837
S'Vadapalli, S.'
p838
sS'A588'
p839
S'Dayal, U.'
p840
sS'A917'
p841
S'Kadivar, N.'
p842
sS'A916'
p843
S'Karlapalem, K.'
p844
sS'A1026'
p845
S'Dornburg, C.C.'
p846
sS'A589'
p847
S'Bash, C.'
p848
sS'A889'
p849
S'Laurendeau, D.'
p850
sS'A681'
p851
S'Dong Hyun Jeong'
p852
sS'A680'
p853
S'Yoshinaga, N.'
p854
sS'A683'
p855
S'Butkiewicz, T.'
p856
sS'A682'
p857
S'Soo-Yeon Ji'
p858
sS'A685'
p859
S'Maule, B.'
p860
sS'A684'
p861
S'Bier, E.A.'
p862
sS'A687'
p863
S'Mistry, S.Y.'
p864
sS'A686'
p865
S'Kulkarni, I.'
p866
sS'A689'
p867
S'Gopi, M.'
p868
sS'A688'
p869
S'Cummings, B.'
p870
sS'A760'
p871
S'Dubois, J.'
p872
sS'A761'
p873
S'Melancon, G.'
p874
sS'A766'
p875
S'Striegel, A.'
p876
sS'A767'
p877
S'Zhong Su'
p878
sS'A764'
p879
S'Yuan He'
p880
sS'A765'
p881
S'Rui Li'
p882
sS'A46'
p883
S'Jaegul Choo'
p884
sS'A47'
p885
S'Xiaoyu Wang'
p886
sS'A44'
p887
S'Cho, I.'
p888
sS'A45'
p889
S'ElTayeby, O.'
p890
sS'A42'
p891
S'Westermann, R.'
p892
sS'A43'
p893
S'Wenwen Dou'
p894
sS'A40'
p895
S'Demir, I.'
p896
sS'A41'
p897
S'Kehrer, J.'
p898
sS'A865'
p899
S'Berger, W.'
p900
sS'A993'
p901
S'Vieux, R.'
p902
sS'A852'
p903
S'Trager, S.'
p904
sS'A48'
p905
S'Ribarsky, W.'
p906
sS'A49'
p907
S'Qingsong Liu'
p908
sS'A853'
p909
S'Wilkinson, M.H.F.'
p910
sS'A867'
p911
S'Kandula, S.'
p912
sS'A854'
p913
S'Roerdink, J.B.T.'
p914
sS'A866'
p915
S'Jaeyeon Kihm'
p916
sS'A829'
p917
S'Kilgore, R.M.'
p918
sS'A1227'
p919
S'Dart, E.'
p920
sS'A985'
p921
S'Archambault, D.'
p922
sS'A968'
p923
S'Payne, J.'
p924
sS'A850'
p925
S'Ferdosi, B.J.'
p926
sS'A618'
p927
S'Siahbani, M.'
p928
sS'A619'
p929
S'Sarkar, A.'
p930
sS'A616'
p931
S'Skau, D.'
p932
sS'A617'
p933
S'Vadlapudi, R.'
p934
sS'A614'
p935
S'Heidemann, G.'
p936
sS'A615'
p937
S'Kandogan, E.'
p938
sS'A612'
p939
S'Netzel, R.'
p940
sS'A613'
p941
S'Hoferlin, M.'
p942
sS'A610'
p943
S'Silvello, G.'
p944
sS'A611'
p945
S'Hoferlin, B.'
p946
sS'A1224'
p947
S'Shahamat, L.'
p948
sS'A469'
p949
S'Schwalm, C.R.'
p950
sS'A468'
p951
S'Hargrove, W.'
p952
sS'A465'
p953
S'Poco, J.'
p954
sS'A464'
p955
S'Rauber, A.'
p956
sS'A467'
p957
S'Yaxing Wei'
p958
sS'A466'
p959
S'Dasgupta, A.'
p960
sS'A461'
p961
S'Yuan, J.'
p962
sS'A460'
p963
S'Tangzhi Ye'
p964
sS'A463'
p965
S'Hanbury, A.'
p966
sS'A462'
p967
S'Qianliang Wu'
p968
sS'A982'
p969
S'Simonetto, P.'
p970
sS'A1225'
p971
S'Bethel, E.W.'
p972
sS'A1220'
p973
S'Kern, D.'
p974
sS'A33'
p975
S'Qi Han'
p976
sS'A32'
p977
S'Heimerl, F.'
p978
sS'A31'
p979
S'Jian Chen'
p980
sS'A30'
p981
S'Sanyal, J.'
p982
sS'A37'
p983
S'Urbanek, S.'
p984
sS'A36'
p985
S'Scheidegger, C.E.'
p986
sS'A35'
p987
S'North, S.C.'
p988
sS'A34'
p989
S'Koch, S.'
p990
sS'A869'
p991
S'Nafari, M.'
p992
sS'A868'
p993
S'Mahajan, R.'
p994
sS'A39'
p995
S'Jarema, M.'
p996
sS'A38'
p997
S'Woodhull, G.'
p998
sS'A1223'
p999
S'Karlson, A.'
p1000
sS'A1034'
p1001
S'Deyong Hu'
p1002
sS'A1221'
p1003
S'Sudjianto, A.'
p1004
sS'A983'
p1005
S'Koenig, P.-Y.'
p1006
sS'A521'
p1007
S'Dostie, M.'
p1008
sS'A1148'
p1009
S'Wade, A.'
p1010
sS'A388'
p1011
S'Muhlbacher, T.'
p1012
sS'A389'
p1013
S'Gratzl, S.'
p1014
sS'A384'
p1015
S'Hong Zhou'
p1016
sS'A385'
p1017
S'Bradel, L.'
p1018
sS'A386'
p1019
S'House, l.'
p1020
sS'A387'
p1021
S'Leman, S.'
p1022
sS'A380'
p1023
S'Oeltze-Jafra, S.'
p1024
sS'A381'
p1025
S'Volzke, H.'
p1026
sS'A382'
p1027
S'Stoffel, A.'
p1028
sS'A383'
p1029
S'Stoffel, F.'
p1030
sS'A142'
p1031
S'Sujin Jang'
p1032
sS'A143'
p1033
S'Elmqvist, N.'
p1034
sS'A140'
p1035
S'Andrienko, G.'
p1036
sS'A141'
p1037
S'Kerren, A.'
p1038
sS'A146'
p1039
S'Hamilton, P.'
p1040
sS'A147'
p1041
S'Chevalier, F.'
p1042
sS'A144'
p1043
S'Ramani, K.'
p1044
sS'A145'
p1045
S'Glueck, M.'
p1046
sS'A263'
p1047
S'Gstrein, E.'
p1048
sS'A262'
p1049
S'Gschwandtner, T.'
p1050
sS'A261'
p1051
S'Leite, R.A.'
p1052
sS'A260'
p1053
S'Magnor, M.'
p1054
sS'A267'
p1055
S'Qiusheng Li'
p1056
sS'A266'
p1057
S'Jie Liangk'
p1058
sS'A265'
p1059
S'Youfeng hao'
p1060
sS'A264'
p1061
S'Kuntner, J.'
p1062
sS'A1120'
p1063
S'Tekusova, T.'
p1064
sS'A1121'
p1065
S'Last, M.'
p1066
sS'A1089'
p1067
S'Tianyi Zhang'
p1068
sS'A1088'
p1069
S'Nam, J.E.'
p1070
sS'A1124'
p1071
S'Yiwen Zhong'
p1072
sS'A1125'
p1073
S'Smith, T.'
p1074
sS'A578'
p1075
S'Brodley, C.E.'
p1076
sS'A1127'
p1077
S'Weixia Huang'
p1078
sS'A1083'
p1079
S'Miklin, R.'
p1080
sS'A1082'
p1081
S'Dalton, J.'
p1082
sS'A1081'
p1083
S'Kuchy, L.'
p1084
sS'A1080'
p1085
S'Holland, B.'
p1086
sS'A1087'
p1087
S'Freiler, W.'
p1088
sS'A359'
p1089
S'Bowen Yu'
p1090
sS'A1085'
p1091
S'Konyha, Z.'
p1092
sS'A1084'
p1093
S'Lipic, T.'
p1094
sS'A546'
p1095
S'Dajian Liu'
p1096
sS'A547'
p1097
S'Ye Yuan'
p1098
sS'A544'
p1099
S'Reddy, C.K.'
p1100
sS'A358'
p1101
S'Singhal, M.'
p1102
sS'A542'
p1103
S'Choudhury, S.'
p1104
sS'A543'
p1105
S'Changhyun Lee'
p1106
sS'A540'
p1107
S'Kodagoda, N.'
p1108
sS'A541'
p1109
S'Rooney, C.'
p1110
sS'A818'
p1111
S'DiPaola, S.'
p1112
sS'A819'
p1113
S'Isenberg, P.'
p1114
sS'A548'
p1115
S'Shadoan, R.'
p1116
sS'A549'
p1117
S'Weaver, C.'
p1118
sS'A1248'
p1119
S'Heiser, J.'
p1120
sS'A851'
p1121
S'Buddelmeijer, H.'
p1122
sS'A317'
p1123
S'Koop, D.'
p1124
sS'A316'
p1125
S'Dietrich, C.'
p1126
sS'A315'
p1127
S'Ebert, D.S.'
p1128
sS'A314'
p1129
S'Chen, M.'
p1130
sS'A313'
p1131
S'Yun Jang'
p1132
sS'A312'
p1133
S'Malik, A.'
p1134
sS'A311'
p1135
S'Junghoon Chae'
p1136
sS'A310'
p1137
S'Yang Yang'
p1138
sS'A351'
p1139
S'Quan Lin'
p1140
sS'A319'
p1141
S'Yixian Zheng'
p1142
sS'A318'
p1143
S'Wenchao Wu'
p1144
sS'A1146'
p1145
S'Ha, D.'
p1146
sS'A350'
p1147
S'Zhao, H.'
p1148
sS'A560'
p1149
S'van de Wetering, H.'
p1150
sS'A1068'
p1151
S'McGrew, B.'
p1152
sS'A277'
p1153
S'Filzmoser, P.'
p1154
sS'A1154'
p1155
S'Few, S.'
p1156
sS'A1157'
p1157
S'Greenfield, J.'
p1158
sS'A1156'
p1159
S'Wilson, A.'
p1160
sS'A1018'
p1161
S'Dadzie, A.-S.'
p1162
sS'A1019'
p1163
S'Petrelli, D.'
p1164
sS'A1153'
p1165
S'Eremeeva, M.E.'
p1166
sS'A666'
p1167
S'Burch, M.'
p1168
sS'A1014'
p1169
S'Liebig, T.'
p1170
sS'A1015'
p1171
S'Noppens, O.'
p1172
sS'A1016'
p1173
S'von Henke, F.'
p1174
sS'A1017'
p1175
S'Gorner, M.'
p1176
sS'A1010'
p1177
S'Jones, C.'
p1178
sS'A1011'
p1179
S'Ogawa, M.'
p1180
sS'A1012'
p1181
S'Shearer, J.'
p1182
sS'A1013'
p1183
S'Tikhonova, A.'
p1184
sS'A82'
p1185
S'Quan Li'
p1186
sS'A83'
p1187
S'Peng Xu'
p1188
sS'A80'
p1189
S'Haeyong Chung'
p1190
sS'A81'
p1191
S'Joshi, S.H.'
p1192
sS'A86'
p1193
S'Si Li'
p1194
sS'A87'
p1195
S'Fei Wu'
p1196
sS'A84'
p1197
S'Haoling Dong'
p1198
sS'A85'
p1199
S'Siliang Tang'
p1200
sS'A1038'
p1201
S'Farrugia, M.'
p1202
sS'A88'
p1203
S'Yueting Zhuang'
p1204
sS'A89'
p1205
S'Bryan, C.'
p1206
sS'A1242'
p1207
S'Xuan Zhong'
p1208
sS'A1244'
p1209
S'Coyle, E.'
p1210
sS'A660'
p1211
S'Cuixia Ma'
p1212
sS'A920'
p1213
S'Lee, E.'
p1214
sS'A921'
p1215
S'Qian, C.'
p1216
sS'A922'
p1217
S'Woodbury, R.'
p1218
sS'A923'
p1219
S'Schneidewind, J.'
p1220
sS'A861'
p1221
S'Lehmann, D.J.'
p1222
sS'A925'
p1223
S'Birn, L.'
p1224
sS'A926'
p1225
S'Shrinivasan, Y.B.'
p1226
sS'A927'
p1227
S'Rose, S.'
p1228
sS'A928'
p1229
S'Butner, S.'
p1230
sS'A929'
p1231
S'Cowley, W.'
p1232
sS'A1057'
p1233
S'Tat, A.'
p1234
sS'A269'
p1235
S'Yadong Wu'
p1236
sS'A1062'
p1237
S'Stryker, M.'
p1238
sS'A1064'
p1239
S'Chaomei Chen'
p1240
sS'A268'
p1241
S'Haiyang Wang'
p1242
sS'A1067'
p1243
S'Sankar, R.'
p1244
sS'A1149'
p1245
S'Chao, W.'
p1246
sS'A1170'
p1247
S'Ghoniem, M.'
p1248
sS'A804'
p1249
S'Ronen, I.'
p1250
sS'A1212'
p1251
S'Ahmed, A.'
p1252
sS'A1210'
p1253
S'Brandes, U.'
p1254
sS'A996'
p1255
S'Bartz, D.'
p1256
sS'A823'
p1257
S'Czerwinski, M.'
p1258
sS'A148'
p1259
S'Breslav, S.'
p1260
sS'A991'
p1261
S'Sicre, R.'
p1262
sS'A149'
p1263
S'Khan, A.'
p1264
sS'A79'
p1265
S'Simard, P.'
p1266
sS'A78'
p1267
S'Kapoor, A.'
p1268
sS'A77'
p1269
S'Drucker, S.'
p1270
sS'A76'
p1271
S'Bongshin Lee'
p1272
sS'A75'
p1273
S'Amershi, S.'
p1274
sS'A74'
p1275
S'Brooks, M.'
p1276
sS'A73'
p1277
S'Maciejewski, R.'
p1278
sS'A72'
p1279
S'Corman, S.R.'
p1280
sS'A71'
p1281
S'Montgomery, D.'
p1282
sS'A70'
p1283
S'Davulcu, H.'
p1284
sS'A645'
p1285
S'Chakraborty, P.'
p1286
sS'A644'
p1287
S'Butler, P.'
p1288
sS'A647'
p1289
S'Olislagers, F.'
p1290
sS'A646'
p1291
S'Ramakrishan, N.'
p1292
sS'A641'
p1293
S'Maas, F.'
p1294
sS'A640'
p1295
S'Tatu, A.'
p1296
sS'A643'
p1297
S'Seidl, T.'
p1298
sS'A642'
p1299
S'Farber, I.'
p1300
sS'A726'
p1301
S'Sen Xu'
p1302
sS'A727'
p1303
S'Bannach, A.'
p1304
sS'A724'
p1305
S'Singh, L.'
p1306
sS'A725'
p1307
S'Giacobe, N.A.'
p1308
sS'A561'
p1309
S'Takle, J.'
p1310
sS'A648'
p1311
S'Pohl, M.'
p1312
sS'A720'
p1313
S'Sharara, H.'
p1314
sS'A721'
p1315
S'Sopan, A.'
p1316
sS'A106'
p1317
S'Xiaolong Zhang'
p1318
sS'A107'
p1319
S'Jiawan Zhang'
p1320
sS'A104'
p1321
S'Jie Liang'
p1322
sS'A105'
p1323
S'Zuchao Wang'
p1324
sS'A102'
p1325
S'Zhenhuang Wang'
p1326
sS'A103'
p1327
S'Cong Guo'
p1328
sS'A100'
p1329
S'Siming Chen'
p1330
sS'A101'
p1331
S'Xiaoru Yuan'
p1332
sS'A515'
p1333
S'Xinran Hu'
p1334
sS'A514'
p1335
S'Puttmann, E.'
p1336
sS'A517'
p1337
S'House, L.'
p1338
sS'A516'
p1339
S'Maiti, D.'
p1340
sS'A458'
p1341
S'Stehno, B.'
p1342
sS'A459'
p1343
S'Purgathofer, W.'
p1344
sS'A108'
p1345
S'Janicke, S.'
p1346
sS'A109'
p1347
S'Focht, J.'
p1348
sS'A1123'
p1349
S'Chen Yu'
p1350
sS'A391'
p1351
S'Kai Yan'
p1352
sS'A1110'
p1353
S'Aragon, C.R.'
p1354
sS'A992'
p1355
S'Brulin, M.'
p1356
sS'A1031'
p1357
S'Armstrong, R.'
p1358
sS'A1112'
p1359
S'Aldering, G.S.'
p1360
sS'A1126'
p1361
S'Park, I.'
p1362
sS'A1114'
p1363
S'Quimby, R.'
p1364
sS'A421'
p1365
S'Xinxin Huang'
p1366
sS'A420'
p1367
S'Cong Xie'
p1368
sS'A423'
p1369
S'Barlowe, S.'
p1370
sS'A422'
p1371
S'Yueqi Hu'
p1372
sS'A425'
p1373
S'Muller, A.'
p1374
sS'A424'
p1375
S'Worner, M.'
p1376
sS'A427'
p1377
S'Jing Xia'
p1378
sS'A426'
p1379
S'Jieqiong Zhao'
p1380
sS'A429'
p1381
S'Kne, L.'
p1382
sS'A428'
p1383
S'Abram, G.'
p1384
sS'A580'
p1385
S'Paepcke, A.'
p1386
sS'A581'
p1387
S'Hellerstein, J.M.'
p1388
sS'A586'
p1389
S'Marwah, M.'
p1390
sS'A587'
p1391
S'Mittelstadt, S.'
p1392
sS'A584'
p1393
S'Stasko, J.'
p1394
sS'A585'
p1395
S'Hao, M.C.'
p1396
sS'A1235'
p1397
S'Licamele, L.'
p1398
sS'A1159'
p1399
S'Ice, L.'
p1400
sS'A1051'
p1401
S'Oates, B.'
p1402
sS'A579'
p1403
S'Kandel, S.'
p1404
sS'A1086'
p1405
S'Beric, M.'
p1406
sS'A212'
p1407
S'Xiaoke Huang'
p1408
sS'A213'
p1409
S'Ye Zhao'
p1410
sS'A210'
p1411
S'Jofre, A.'
p1412
sS'A211'
p1413
S'Diamond, S.'
p1414
sS'A216'
p1415
S'Chao Ma'
p1416
sS'A217'
p1417
S'Xinyue Ye'
p1418
sS'A214'
p1419
S'Jing Yang'
p1420
sS'A215'
p1421
S'Chong Zhang'
p1422
sS'A353'
p1423
S'Chang, R.'
p1424
sS'A352'
p1425
S'Souvenir, R.'
p1426
sS'A218'
p1427
S'Yi-Chih Tsai'
p1428
sS'A219'
p1429
S'Liang-Chi Hsieh'
p1430
sS'A357'
p1431
S'Bart, E.'
p1432
sS'A356'
p1433
S'Ahern, S.'
p1434
sS'A355'
p1435
S'Damico, K.'
p1436
sS'A354'
p1437
S'Isaacs, E.'
p1438
sS'A1050'
p1439
S'Bouvier, D.J.'
p1440
sS'A814'
p1441
S'Garg, S.'
p1442
sS'A1052'
p1443
S'Simeone, A.L.'
p1444
sS'A1053'
p1445
S'Paolo, B.'
p1446
sS'A1054'
p1447
S'Pokharkar, S.'
p1448
sS'A1055'
p1449
S'Tin Kam Ho'
p1450
sS'A1056'
p1451
S'Chien, L.'
p1452
sS'A815'
p1453
S'Ramakrishnan, I.'
p1454
sS'A1058'
p1455
S'Proulx, P.'
p1456
sS'A1059'
p1457
S'Khamisa, A.'
p1458
sS'A816'
p1459
S'Talbot, J.'
p1460
sS'A1119'
p1461
S'Meyer, J.'
p1462
sS'A1118'
p1463
S'Gerhardt, F.'
p1464
sS'A545'
p1465
S'Kai Kang'
p1466
sS'A1111'
p1467
S'Poon, S.'
p1468
sS'A810'
p1469
S'Jansen, A.'
p1470
sS'A1113'
p1471
S'Thomas, R.C.'
p1472
sS'A190'
p1473
S'Papka, M.E.'
p1474
sS'A1115'
p1475
S'Laskowski, S.'
p1476
sS'A571'
p1477
S'Benedik, R.'
p1478
sS'A1117'
p1479
S'Xinlei Zhao'
p1480
sS'A811'
p1481
S'Sarvghad, A.'
p1482
sS'A1214'
p1483
S'Seok-Hee Hong'
p1484
sS'A570'
p1485
S'Buchetics, M.'
p1486
sS'A537'
p1487
S'Bown, R.'
p1488
sS'A812'
p1489
S'Suma, E.'
p1490
sS'A932'
p1491
S'Allen, D.'
p1492
sS'A813'
p1493
S'Ray, W.C.'
p1494
sS'A1179'
p1495
S'Russell, D.'
p1496
sS'A1222'
p1497
S'Fails, J.A.'
p1498
sS'A569'
p1499
S'Bowerman, A.'
p1500
sS'A1215'
p1501
S'Quan Hoang Nguyen'
p1502
sS'A1182'
p1503
S'Sang-joon Lee'
p1504
sS'A536'
p1505
S'Parry, M.L.'
p1506
sS'A934'
p1507
S'Huber, D.'
p1508
sS'A1180'
p1509
S'Tang, D.'
p1510
sS'A1025'
p1511
S'Kumar, A.'
p1512
sS'A1024'
p1513
S'Clement, T.'
p1514
sS'A1027'
p1515
S'Matzen, L.E.'
p1516
sS'A971'
p1517
S'Viegas, F.B.'
p1518
sS'A1021'
p1519
S'Mountain, D.'
p1520
sS'A1020'
p1521
S'Khalili-Shavarini, N.'
p1522
sS'A1023'
p1523
S'Vuillemot, R.'
p1524
sS'A1022'
p1525
S'Erdos, D.'
p1526
sS'A582'
p1527
S'Heer, J.'
p1528
sS'A828'
p1529
S'Godwin, J.A.'
p1530
sS'A1029'
p1531
S'McNamara, L.A.'
p1532
sS'A939'
p1533
S'Astrom, T.'
p1534
sS'A535'
p1535
S'Chung, D.H.S.'
p1536
sS'A1205'
p1537
S'Larson, J.'
p1538
sS'A678'
p1539
S'Cottam, J.A.'
p1540
sS'A679'
p1541
S'Lumsdaine, A.'
p1542
sS'A674'
p1543
S'Bustos, B.'
p1544
sS'A675'
p1545
S'Anand, A.'
p1546
sS'A676'
p1547
S'Goodwin, S.'
p1548
sS'A677'
p1549
S'Kamijo, T.'
p1550
sS'A670'
p1551
S'Sundaresan, N.'
p1552
sS'A671'
p1553
S'Sharalieva, L.'
p1554
sS'A672'
p1555
S'Wanner, F.'
p1556
sS'A673'
p1557
S'Ruppert, T.'
p1558
sS'A970'
p1559
S'Stevson, S.'
p1560
sS'A1151'
p1561
S'Kaastra, L.'
p1562
sS'A583'
p1563
S'Youn-ah Kang'
p1564
sS'A1236'
p1565
S'Xie Zaixian'
p1566
sS'A1189'
p1567
S'Runge, K.J.'
p1568
sS'A1138'
p1569
S'Goodall, J.R.'
p1570
sS'A980'
p1571
S'VinhTuan Thai'
p1572
sS'A773'
p1573
S'Savelyev, A.'
p1574
sS'A609'
p1575
S'Santucci, G.'
p1576
sS'A608'
p1577
S'Granato, G.'
p1578
sS'A979'
p1579
S'Fink, G.A.'
p1580
sS'A978'
p1581
S'Guozhong Dai'
p1582
sS'A601'
p1583
S'Daniels, J.'
p1584
sS'A600'
p1585
S'Brazil, E.V.'
p1586
sS'A603'
p1587
S'Sousa, M.C.'
p1588
sS'A602'
p1589
S'Joia, P.'
p1590
sS'A605'
p1591
S'Schwabish, J.A.'
p1592
sS'A604'
p1593
S'Tran, D.'
p1594
sS'A607'
p1595
S'Ferro, N.'
p1596
sS'A606'
p1597
S'Angelini, M.'
p1598
sS'A418'
p1599
S'Wongsuphasawat, K.'
p1600
sS'A419'
p1601
S'Lin, J.'
p1602
sS'A1213'
p1603
S'Xiaoyan Fu'
p1604
sS'A410'
p1605
S'Xiting Wang'
p1606
sS'A411'
p1607
S'Jianfei Chen'
p1608
sS'A412'
p1609
S'Jun Zhu'
p1610
sS'A413'
p1611
S'Baining Guo'
p1612
sS'A414'
p1613
S'Zahlka, J.'
p1614
sS'A415'
p1615
S'Worring, M.'
p1616
sS'A416'
p1617
S'Tuan Nhon Dang'
p1618
sS'A417'
p1619
S'Wilkinson, L.'
p1620
sS'A788'
p1621
S'Huber, S.'
p1622
sS'A789'
p1623
S'Lindemeier, T.'
p1624
sS'A1211'
p1625
S'Lerner, J.'
p1626
sS'A1155'
p1627
S'Wylie, B.'
p1628
sS'A824'
p1629
S'Zicheng Liao'
p1630
sS'A768'
p1631
S'Jackle, D.'
p1632
sS'A781'
p1633
S'He Liu'
p1634
sS'A782'
p1635
S'Yuan Gao'
p1636
sS'A783'
p1637
S'Lu Lu'
p1638
sS'A784'
p1639
S'Siyuan Liu'
p1640
sS'A785'
p1641
S'Ni, L.M.'
p1642
sS'A786'
p1643
S'Dillingham, I.'
p1644
sS'A787'
p1645
S'Buchmuller, J.'
p1646
sS'A20'
p1647
S'Xizhou Zhu'
p1648
sS'A21'
p1649
S'Qinying Liao'
p1650
sS'A22'
p1651
S'Furu Wei'
p1652
sS'A23'
p1653
S'Shimei Pan'
p1654
sS'A24'
p1655
S'Maoyuan Sun'
p1656
sS'A25'
p1657
S'Peng Mi'
p1658
sS'A26'
p1659
S'North, C.'
p1660
sS'A27'
p1661
S'Ramakrishnan, N.'
p1662
sS'A28'
p1663
S'Ragan, E.D.'
p1664
sS'A29'
p1665
S'Endert, A.'
p1666
sS'A896'
p1667
S'Devillers, R.'
p1668
sS'A897'
p1669
S'Seungwon Yang'
p1670
sS'A890'
p1671
S'Girardin, M.'
p1672
sS'A891'
p1673
S'Dudzic, S.'
p1674
sS'A892'
p1675
S'Hoeber, O.'
p1676
sS'A893'
p1677
S'Wilson, G.'
p1678
sS'A775'
p1679
S'Zhang, X.'
p1680
sS'A774'
p1681
S'Mitra, P.'
p1682
sS'A777'
p1683
S'Yang Chen'
p1684
sS'A776'
p1685
S'Blanford, J.'
p1686
sS'A771'
p1687
S'Robinson, A.'
p1688
sS'A770'
p1689
S'Jaiswal, A.R.'
p1690
sS'A769'
p1691
S'MacEachren, A.M.'
p1692
sS'A772'
p1693
S'Pezanowski, S.'
p1694
sS'A568'
p1695
S'Beecham, R.'
p1696
sS'A822'
p1697
S'Inkpen, K.'
p1698
sS'A779'
p1699
S'Gomez, J.A.G.'
p1700
sS'A778'
p1701
S'Alsakran, J.'
p1702
sS'A256'
p1703
S'Lowe, T.'
p1704
sS'A257'
p1705
S'Forster, E.-C.'
p1706
sS'A254'
p1707
S'Chufan Lai'
p1708
sS'A255'
p1709
S'Ye Tangzhi'
p1710
sS'A252'
p1711
S'Weiskopf, D.'
p1712
sS'A253'
p1713
S'Min Lu'
p1714
sS'A250'
p1715
S'Ji Soo Yi'
p1716
sS'A251'
p1717
S'Beck, F.'
p1718
sS'A397'
p1719
S'Stolper, C.D.'
p1720
sS'A396'
p1721
S'McCullough, S.'
p1722
sS'A395'
p1723
S'Towers, S.'
p1724
sS'A394'
p1725
S'Zhou, M.X.'
p1726
sS'A393'
p1727
S'Liang Gou'
p1728
sS'A392'
p1729
S'Fangzhao Wu'
p1730
sS'A258'
p1731
S'Albuquerque, G.'
p1732
sS'A259'
p1733
S'Kreiss, J.-P.'
p1734
sS'A1094'
p1735
S'Hurst, M.'
p1736
sS'A1095'
p1737
S'Pike, W.A.'
p1738
sS'A1096'
p1739
S'Baddeley, B.'
p1740
sS'A1097'
p1741
S'Best, D.'
p1742
sS'A159'
p1743
S'Wong, B.L.W.'
p1744
sS'A158'
p1745
S'Wheat, A.'
p1746
sS'A1092'
p1747
S'Hoff, A.'
p1748
sS'A1093'
p1749
S'Robertson, G.'
p1750
sS'A155'
p1751
S'van Wijk, J.J.'
p1752
sS'A154'
p1753
S'Blaas, J.'
p1754
sS'A157'
p1755
S'Kai Xu'
p1756
sS'A156'
p1757
S'Nguyen, P.H.'
p1758
sS'A151'
p1759
S'Brudno, M.'
p1760
sS'A150'
p1761
S'Wigdor, D.'
p1762
sS'A153'
p1763
S'Holten, D.'
p1764
sS'A152'
p1765
S'van den Elzen, S.'
p1766
sS'A994'
p1767
S'Dietzsch, J.'
p1768
sS'A1101'
p1769
S'Riensche, R.'
p1770
sS'A551'
p1771
S'Enxun Wei'
p1772
sS'A550'
p1773
S'Panpan Xu'
p1774
sS'A553'
p1775
S'Seungyoon Lee'
p1776
sS'A552'
p1777
S'Ghani, S.'
p1778
sS'A555'
p1779
S'Bak, P.'
p1780
sS'A554'
p1781
S'Packer, E.'
p1782
sS'A557'
p1783
S'Polishchuk, V.'
p1784
sS'A556'
p1785
S'Nikkila, M.'
p1786
sS'A559'
p1787
S'Junping Zhang'
p1788
sS'A558'
p1789
S'Ship, H.J.'
p1790
sS'A1247'
p1791
S'Lichan Hong'
p1792
sS'A1246'
p1793
S'Bederson, B.B.'
p1794
sS'A1241'
p1795
S'Bue, B.'
p1796
sS'A1240'
p1797
S'Pattath, A.'
p1798
sS'A809'
p1799
S'Dang, T.'
p1800
sS'A808'
p1801
S'Eckler, K.'
p1802
sS'A490'
p1803
S'Stephens, D.'
p1804
sS'A747'
p1805
S'Navathe, S.B.'
p1806
sS'A491'
p1807
S'Yongjun Zheng'
p1808
sS'A492'
p1809
S'Broeksema, B.'
p1810
sS'A1263'
p1811
S'Parthasarathy, S.'
p1812
sS'A322'
p1813
S'Lex, A.'
p1814
sS'A323'
p1815
S'Streit, M.'
p1816
sS'A320'
p1817
S'Lionel Ni'
p1818
sS'A321'
p1819
S'Partl, C.'
p1820
sS'A326'
p1821
S'Pfister, H.'
p1822
sS'A327'
p1823
S'Schmalstieg, D.'
p1824
sS'A324'
p1825
S'Strobelt, H.'
p1826
sS'A325'
p1827
S'Wassermann, A.M.'
p1828
sS'A1152'
p1829
S'Dasch, G.A.'
p1830
sS'A494'
p1831
S'Telea, A.'
p1832
sS'A328'
p1833
S'Beham, M.'
p1834
sS'A329'
p1835
S'Herzner, W.'
p1836
sS'A1122'
p1837
S'Danon, G.'
p1838
sS'A495'
p1839
S'Crisafulli, P.'
p1840
sS'A348'
p1841
S'Brown, E.T.'
p1842
sS'A855'
p1843
S'Yu-Hsuan Chan'
p1844
sS'A496'
p1845
S'Li Yu'
p1846
sS'A349'
p1847
S'Ottley, A.'
p1848
sS'A497'
p1849
S'Zhiqiang Ma'
p1850
sS'A1028'
p1851
S'Bauer, T.L.'
p1852
sS'A1069'
p1853
S'Montemayor, J.'
p1854
sS'A887'
p1855
S'Mokhtari, M.'
p1856
sS'A1144'
p1857
S'Tsigas, P.'
p1858
sS'A1145'
p1859
S'Guoray Cai'
p1860
sS'A1142'
p1861
S'Zelenyuk, A.'
p1862
sS'A1143'
p1863
S'Imre, D.'
p1864
sS'A963'
p1865
S'Hao Zhou'
p1866
sS'A886'
p1867
S'Spretke, D.'
p1868
sS'A1061'
p1869
S'Chi-Chun Pan'
p1870
sS'A1060'
p1871
S'Pellegrino, D.'
p1872
sS'A1063'
p1873
S'Junyan Luo'
p1874
sS'A196'
p1875
S'Senaratne, H.'
p1876
sS'A1065'
p1877
S'Turton, I.'
p1878
sS'A885'
p1879
S'Oelke, D.'
p1880
sS'A451'
p1881
S'Binghan Xu'
p1882
sS'A1066'
p1883
S'Solomon, J.'
p1884
sS'A1254'
p1885
S'Sifer, M.'
p1886
sS'A883'
p1887
S'Jenny, M.'
p1888
sS'A1264'
p1889
S'Mauger, J.'
p1890
sS'A762'
p1891
S'Shi, L.'
p1892
sS'A882'
p1893
S'Ziegler, H.'
p1894
sS'A739'
p1895
S'Zhicheng Liu'
p1896
sS'A933'
p1897
S'Tsai-Ching Lu'
p1898
sS'A700'
p1899
S'Fekete, Z.'
p1900
sS'A931'
p1901
S'Walker, J.'
p1902
sS'A930'
p1903
S'Gregory, M.'
p1904
sS'A937'
p1905
S'Savikhin, A.'
p1906
sS'A936'
p1907
S'Rudolph, S.'
p1908
sS'A935'
p1909
S'Leonard, L.'
p1910
sS'A701'
p1911
S'Gobolos-Szabo, J.'
p1912
sS'A763'
p1913
S'Qi Liao'
p1914
sS'A938'
p1915
S'Ho Van Quan'
p1916
sS'A702'
p1917
S'Lukacs, A.'
p1918
sS'A703'
p1919
S'Nagy, A.'
p1920
sS'A346'
p1921
S'Korkmaz, F.'
p1922
sS'A445'
p1923
S'Keul, F.'
p1924
sS'A738'
p1925
S'Gorg, C.'
p1926
sS'A704'
p1927
S'Szabo, A.'
p1928
sS'A347'
p1929
S'Lin Shao'
p1930
sS'A705'
p1931
S'Szabo, Z.'
p1932
sS'A748'
p1933
S'Chao Han'
p1934
sS'A706'
p1935
S'Szucs, G.'
p1936
sS'A744'
p1937
S'Swing, E.'
p1938
sS'A745'
p1939
S'Qian, Z.C.'
p1940
sS'A746'
p1941
S'Li Zhang'
p1942
sS'A707'
p1943
S'ap Cenydd, L.'
p1944
sS'A740'
p1945
S'Peca, I.'
p1946
sS'A741'
p1947
S'Zhi, H.'
p1948
sS'A742'
p1949
S'Vrotsou, K.'
p1950
sS'A743'
p1951
S'Boone, K.'
p1952
sS'A708'
p1953
S'Pop, S.'
p1954
sS'A444'
p1955
S'Lenz, O.'
p1956
sS'A709'
p1957
S'Miles, H.'
p1958
sS'A1192'
p1959
S'Fugitt, J.'
p1960
sS'A177'
p1961
S'Perer, A.'
p1962
sS'A1260'
p1963
S'Peuquet, D.'
p1964
sS'A1261'
p1965
S'Theron, R.'
p1966
sS'A68'
p1967
S'Hong Wang'
p1968
sS'A69'
p1969
S'Jiun-Yi Tsai'
p1970
sS'A176'
p1971
S'Krause, J.'
p1972
sS'A64'
p1973
S'Jensen, V.R.'
p1974
sS'A65'
p1975
S'Yafeng Lu'
p1976
sS'A66'
p1977
S'Steptoe, M.'
p1978
sS'A67'
p1979
S'Burke, S.'
p1980
sS'A60'
p1981
S'Huamin Qu'
p1982
sS'A61'
p1983
S'Solteszova, V.'
p1984
sS'A62'
p1985
S'Foscato, M.'
p1986
sS'A63'
p1987
S'Eliasson, S.H.'
p1988
sS'A630'
p1989
S'Watson, L.T.'
p1990
sS'A631'
p1991
S'Fiaux, P.'
p1992
sS'A632'
p1993
S'Mistelbauer, G.'
p1994
sS'A633'
p1995
S'Bouzari, H.'
p1996
sS'A634'
p1997
S'Schernthaner, R.'
p1998
sS'A635'
p1999
S'Baclija, I.'
p2000
sS'A636'
p2001
S'Kochl, A.'
p2002
sS'A637'
p2003
S'Sramek, M.'
p2004
sS'A638'
p2005
S'Airong Luo'
p2006
sS'A639'
p2007
S'Anderson, P.F.'
p2008
sS'A733'
p2009
S'van Gemert, J.C.'
p2010
sS'A732'
p2011
S'Migut, M.'
p2012
sS'A735'
p2013
S'Weil, P.'
p2014
sS'A734'
p2015
S'Hess, M.'
p2016
sS'A737'
p2017
S'Braunstein, E.'
p2018
sS'A736'
p2019
S'Hamacherk, K.'
p2020
sS'A111'
p2021
S'Splechtna, R.'
p2022
sS'A110'
p2023
S'Scheuermann, G.'
p2024
sS'A113'
p2025
S'Jelovic, M.'
p2026
sS'A112'
p2027
S'Gracanin, D.'
p2028
sS'A115'
p2029
S'Hannah Kim'
p2030
sS'A114'
p2031
S'Hauser, H.'
p2032
sS'A117'
p2033
S'Yu Liang'
p2034
sS'A116'
p2035
S'Haesun Park'
p2036
sS'A292'
p2037
S'Muelder, C.'
p2038
sS'A118'
p2039
S'Wei Wu'
p2040
sS'A290'
p2041
S'Collins, C.'
p2042
sS'A291'
p2043
S'Crnovrsanin, T.'
p2044
sS'A296'
p2045
S'Han Hong'
p2046
sS'A297'
p2047
S'Tianyu Gu'
p2048
sS'A294'
p2049
S'Wei Chen'
p2050
sS'A295'
p2051
S'Feiran Wu'
p2052
sS'A1191'
p2053
S'Eick, M.A.'
p2054
sS'A1128'
p2055
S'Janoos, F.'
p2056
sS'A1193'
p2057
S'Horst, B.'
p2058
sS'A534'
p2059
S'Legg, P.A.'
p2060
sS'A1195'
p2061
S'Lankenau, R.A.'
p2062
sS'A1194'
p2063
S'Khailo, M.'
p2064
sS'A1197'
p2065
S'Suh, B.'
p2066
sS'A1196'
p2067
S'Minjung Kim'
p2068
sS'A1199'
p2069
S'Pendleton, B.A.'
p2070
sS'A533'
p2071
S'Andrews, C.'
p2072
sS'A532'
p2073
S'Shneiderman, B.'
p2074
sS'A595'
p2075
S'Aidong Lu'
p2076
sS'A594'
p2077
S'Harrison, L.'
p2078
sS'A597'
p2079
S'Greer, V.'
p2080
sS'A596'
p2081
S'Bowman, I.'
p2082
sS'A591'
p2083
S'Patel, C.'
p2084
sS'A531'
p2085
S'Plaisant, C.'
p2086
sS'A593'
p2087
S'Chen, Y.'
p2088
sS'A592'
p2089
S'Hsu, M.'
p2090
sS'A1209'
p2091
S'Searsmith, K.'
p2092
sS'A1208'
p2093
S'Searsmith, D.'
p2094
sS'A530'
p2095
S'Hanseung Lee'
p2096
sS'A599'
p2097
S'Portes dos Santos Amorim, E.'
p2098
sS'A598'
p2099
S'Van Horn, J.D.'
p2100
sS'A1129'
p2101
S'Singh, S.'
p2102
sS'A849'
p2103
S'Zappa, M.'
p2104
sS'A848'
p2105
S'Eosco, G.'
p2106
sS'A179'
p2107
S'Nan Cao'
p2108
sS'A188'
p2109
S'Gonzalez, A.'
p2110
sS'A189'
p2111
S'Leigh, J.'
p2112
sS'A186'
p2113
S'Gleicher, M.'
p2114
sS'A187'
p2115
S'Reda, K.'
p2116
sS'A184'
p2117
S'Ching-Yung Lin'
p2118
sS'A185'
p2119
S'Alexander, E.'
p2120
sS'A182'
p2121
S'Jie Lu'
p2122
sS'A183'
p2123
S'Yu-Ru Lin'
p2124
sS'A180'
p2125
S'Conglei Shi'
p2126
sS'A181'
p2127
S'Lin, S.'
p2128
sS'A366'
p2129
S'Accorsi, P.'
p2130
sS'A367'
p2131
S'Fabregue, M.'
p2132
sS'A364'
p2133
S'Madar, A.'
p2134
sS'A365'
p2135
S'Bonneau, R.'
p2136
sS'A362'
p2137
S'Arrieta-Ortiz, M.L.'
p2138
sS'A363'
p2139
S'Hafemeister, C.'
p2140
sS'A360'
p2141
S'Xi Chen'
p2142
sS'A361'
p2143
S'Miraldi, E.'
p2144
sS'A1140'
p2145
S'Eun Ju Nam'
p2146
sS'A981'
p2147
S'Handschuh, S.'
p2148
sS'A368'
p2149
S'Sallaberry, A.'
p2150
sS'A369'
p2151
S'Cernesson, F.'
p2152
sS'A164'
p2153
S'Rohlig, M.'
p2154
sS'A165'
p2155
S'Schumann, H.'
p2156
sS'A166'
p2157
S'Shenghui Cheng'
p2158
sS'A167'
p2159
S'Yue Wang'
p2160
sS'A160'
p2161
S'Attfield, S.'
p2162
sS'A208'
p2163
S'Peter, J.'
p2164
sS'A162'
p2165
S'Richter, C.'
p2166
sS'A163'
p2167
S'Luboschik, M.'
p2168
sS'A205'
p2169
S'Minsuk Kahng'
p2170
sS'A204'
p2171
S'Shang-Tse Chen'
p2172
sS'A207'
p2173
S'Duen Horng Chau'
p2174
sS'A206'
p2175
S'Sharmin, M.'
p2176
sS'A201'
p2177
S'Brehmer, M.'
p2178
sS'A169'
p2179
S'Zhifang Jiang'
p2180
sS'A203'
p2181
S'Polack, P.J.'
p2182
sS'A202'
p2183
S'Munzner, T.'
p2184
sS'A1234'
p2185
S'Bilgic, M.'
p2186
sS'A1243'
p2187
S'Aulf, A.'
p2188
sS'A1141'
p2189
S'Han, Y.'
p2190
sS'A1108'
p2191
S'Grannis, S.J.'
p2192
sS'A1109'
p2193
S'Wade, M.'
p2194
sS'A988'
p2195
S'Mathiaut, M.'
p2196
sS'A1102'
p2197
S'Younkin, K.'
p2198
sS'A1103'
p2199
S'Hafen, R.'
p2200
sS'A1100'
p2201
S'Rice, D.M.'
p2202
sS'A989'
p2203
S'Lambert, A.'
p2204
sS'A1106'
p2205
S'Ouzzani, M.'
p2206
sS'A860'
p2207
S'Hawkins, M.E.'
p2208
sS'A1104'
p2209
S'Abusalah, A.'
p2210
sS'A1105'
p2211
S'Yakout, M.'
p2212
sS'A447'
p2213
S'Hamacher, K.'
p2214
sS'A446'
p2215
S'Bremm, S.'
p2216
sS'A731'
p2217
S'Sheffield, D.'
p2218
sS'A298'
p2219
S'Long Wang'
p2220
sS'A1204'
p2221
S'McLean, J.'
p2222
sS'A299'
p2223
S'Ronghua Liang'
p2224
sS'A1139'
p2225
S'Hyunmo Kang'
p2226
sS'A1200'
p2227
S'Kittur, A.'
p2228
sS'A443'
p2229
S'Wentao Gu'
p2230
sS'A863'
p2231
S'Jing Jin'
p2232
sS'A566'
p2233
S'Unger, A.'
p2234
sS'A442'
p2235
S'Weifeng Chen'
p2236
sS'A1116'
p2237
S"O'Connell, T."
p2238
sS'A1074'
p2239
S'Benes, B.'
p2240
sS'A441'
p2241
S'Kun Zhou'
p2242
sS'A730'
p2243
S'Canfield, C.M.'
p2244
sS'A440'
p2245
S'Zhiqi Liu'
p2246
sS'A1036'
p2247
S'Nan Du'
p2248
sS'A119'
p2249
S'Xiaohui Li'
p2250
sS'A524'
p2251
S'Leung, R.'
p2252
sS'A1035'
p2253
S'Bin Wu'
p2254
sS'A1032'
p2255
S'Qi Ye'
p2256
sS'A1033'
p2257
S'Tian Zhu'
p2258
sS'A1030'
p2259
S'Pascual-Cid, V.'
p2260
sS'A293'
p2261
S'Fei Wang'
p2262
sS'A862'
p2263
S'Theisel, H.'
p2264
sS'A567'
p2265
S'Hege, H.-C.'
p2266
sS'A562'
p2267
S'Silver, D.'
p2268
sS'A918'
p2269
S'Chen, V.'
p2270
sS'A1039'
p2271
S'Quigley, A.'
p2272
sS'A563'
p2273
S'Heitmann, K.'
p2274
sS'A669'
p2275
S'Zeqian Shen'
p2276
sS'A668'
p2277
S'Jishang Wei'
p2278
sS'A667'
p2279
S'Tekusova, M.'
p2280
sS'A564'
p2281
S'Huang, W.'
p2282
sS'A665'
p2283
S'Last, H.'
p2284
sS'A664'
p2285
S'Weber, S.'
p2286
sS'A663'
p2287
S'Pompl, R.'
p2288
sS'A662'
p2289
S'Leishi Zhang'
p2290
sS'A661'
p2291
S'Hongan Wang'
p2292
sS'A565'
p2293
S'Boubela, R.N.'
p2294
sS'A525'
p2295
S'Hadlak, S.'
p2296
sS'A977'
p2297
S'Wei Liu'
p2298
sS'A493'
p2299
S'Baudel, T.'
p2300
sS'A888'
p2301
S'Boivin, E.'
p2302
sS'A449'
p2303
S'Jing Ma'
p2304
sS'A976'
p2305
S'Feng Tian'
p2306
sS'A924'
p2307
S'Muller-Birn, C.'
p2308
sS'A448'
p2309
S'Yanli, E.'
p2310
sS'A975'
p2311
S'Xiongfei Luo'
p2312
sS'A962'
p2313
S'Dejgaard, K.'
p2314
sS'A974'
p2315
S'Castellanos, M.'
p2316
sS'A1190'
p2317
S'Eick, S.G.'
p2318
sS'A973'
p2319
S'Bridgeman, S.'
p2320
sS'A972'
p2321
S'Wattenberg, M.'
p2322
sS'A948'
p2323
S'Granacher, C.'
p2324
sS'A949'
p2325
S'Butscher, S.'
p2326
sS'A864'
p2327
S'Szekely, P.'
p2328
sS'A942'
p2329
S'Jankun-Kelly, T.J.'
p2330
sS'A943'
p2331
S'Fitzpatrick, P.J.'
p2332
sS'A940'
p2333
S'Jern, M.'
p2334
sS'A941'
p2335
S'Steed, C.A.'
p2336
sS'A946'
p2337
S'Reina, G.'
p2338
sS'A947'
p2339
S'Leifert, S.'
p2340
sS'A944'
p2341
S'Heinrich, J.'
p2342
sS'A945'
p2343
S'Muller, C.'
p2344
sS'A409'
p2345
S'Gargiulo, M.F.'
p2346
sS'A408'
p2347
S'Tory, M.'
p2348
sS'A403'
p2349
S'Horvath, Z.'
p2350
sS'A402'
p2351
S'Perdigao, R.A.P.'
p2352
sS'A401'
p2353
S'Cornel, D.'
p2354
sS'A400'
p2355
S'Sadransky, B.'
p2356
sS'A407'
p2357
S'Mahyar, N.'
p2358
sS'A406'
p2359
S'Witmore, M.'
p2360
sS'A405'
p2361
S'Valenza, R.'
p2362
sS'A404'
p2363
S'Kohlmann, J.'
p2364
sS'A799'
p2365
S'Ming Hao'
p2366
sS'A798'
p2367
S'Zieker, M.'
p2368
sS'A1198'
p2369
S'Chi, E.H.'
p2370
sS'A793'
p2371
S'Regenscheit, M.'
p2372
sS'A792'
p2373
S'Ramm, T.'
p2374
sS'A791'
p2375
S'Mansmann, F.'
p2376
sS'A790'
p2377
S'Maass, F.'
p2378
sS'A797'
p2379
S'Tautzenberger, M.'
p2380
sS'A796'
p2381
S'Sellien, S.'
p2382
sS'A795'
p2383
S'Scheible, C.'
p2384
sS'A794'
p2385
S'Rohrdantz, C.'
p2386
sS'A15'
p2387
S'Yokoyama, D.'
p2388
sS'A14'
p2389
S'Itoh, M.'
p2390
sS'A17'
p2391
S'Kitsuregawa, M.'
p2392
sS'A16'
p2393
S'Toyoda, M.'
p2394
sS'A11'
p2395
S'Cook, K.A.'
p2396
sS'A10'
p2397
S'Laidlaw, D.H.'
p2398
sS'A13'
p2399
S'Whiting, M.'
p2400
sS'A12'
p2401
S'Scholtz, J.'
p2402
sS'A498'
p2403
S'Willett, W.'
p2404
sS'A499'
p2405
S'Ginosar, S.'
p2406
sS'A520'
p2407
S'Barrett, L.'
p2408
sS'A884'
p2409
S'Gruse, T.'
p2410
sS'A19'
p2411
S'Shixia Liu'
p2412
sS'A18'
p2413
S'Mengchen Liu'
p2414
sS'A881'
p2415
S'Patnaik, D.'
p2416
sS'A880'
p2417
S'Sharma, R.'
p2418
sS'A1'
p2419
S'Lawonn, K.'
p2420
sS'A0'
p2421
S'Klemm, P.'
p2422
sS'A3'
p2423
S'Niemann, U.'
p2424
sS'A2'
p2425
S'Glaer, S.'
p2426
sS'A5'
p2427
S'Volzke, H.'
p2428
sS'A4'
p2429
S'Hegenscheid, K.'
p2430
sS'A7'
p2431
S'Hua Guo'
p2432
sS'A6'
p2433
S'Preim, B.'
p2434
sS'A9'
p2435
S'Ziemkiewicz, C.'
p2436
sS'A8'
p2437
S'Gomez, S.R.'
p2438
sS'A241'
p2439
S'Wewnen Dou'
p2440
sS'A240'
p2441
S'Ertl, T.'
p2442
sS'A243'
p2443
S'Sauda, E.'
p2444
sS'A242'
p2445
S'Wang, D.X.'
p2446
sS'A245'
p2447
S'Gutenko, I.'
p2448
sS'A244'
p2449
S'Papadopoulos, C.'
p2450
sS'A247'
p2451
S'Sung-Hee Kim'
p2452
sS'A246'
p2453
S'Kaufman, A.'
p2454
sS'A249'
p2455
S'Jina Huh'
p2456
sS'A248'
p2457
S'Sukwon Lee'
p2458
sS'A1259'
p2459
S'Holdsworth, D.'
p2460
sS'A1203'
p2461
S'Schwendiman, L.'
p2462
sS'A539'
p2463
S'Griffiths, I.W.'
p2464
sS'A538'
p2465
S'Jones, M.W.'
p2466
sS'A128'
p2467
S'Luksch, C.'
p2468
sS'A129'
p2469
S'Schwarzler, M.'
p2470
sS'A1202'
p2471
S'Kuan, W.'
p2472
sS'A120'
p2473
S'Guangxia Li'
p2474
sS'A121'
p2475
S'Wee Siong Ng'
p2476
sS'A122'
p2477
S'See-Kiong Ng'
p2478
sS'A123'
p2479
S'Zhongwen Huang'
p2480
sS'A124'
p2481
S'Arunan, A.'
p2482
sS'A125'
p2483
S'Hui Min Watt'
p2484
sS'A126'
p2485
S'Sorger, J.'
p2486
sS'A127'
p2487
S'Ortner, T.'
p2488
sS'A1255'
p2489
S'Chen, C.'
p2490
sS'A1207'
p2491
S'Llora, X.'
p2492
sS'A522'
p2493
S'Henzi, P.'
p2494
sS'A1216'
p2495
S'Bartling, U.'
p2496
sS'A802'
p2497
S'Guy, I.'
p2498
sS'A1206'
p2499
S'Auvil, L.'
p2500
sS'A832'
p2501
S'Brady, R.'
p2502
sS'A833'
p2503
S'Maggioni, M.'
p2504
sS'A830'
p2505
S'Monson, E.E.'
p2506
sS'A831'
p2507
S'Guangliang Chen'
p2508
sS'A836'
p2509
S'Kivran-Swaine, F.'
p2510
sS'A837'
p2511
S'Ingram, S.'
p2512
sS'A834'
p2513
S'Diakopoulos, N.'
p2514
sS'A835'
p2515
S'Naaman, M.'
p2516
sS'A1256'
p2517
S'Ibekwe-SanJuan, F.'
p2518
sS'A1257'
p2519
S'SanJuan, E.'
p2520
sS'A838'
p2521
S'Irvine, V.'
p2522
sS'A839'
p2523
S'Bergner, S.'
p2524
sS'A1252'
p2525
S'Zelinsky, G.'
p2526
sS'A1253'
p2527
S'Warren, D.S.'
p2528
sS'A1250'
p2529
S'Yuli Gao'
p2530
sS'A1251'
p2531
S'Brennan, S.E.'
p2532
s.