(dp0
I0
(dp1
S'dataID'
p2
S'A858'
p3
sS'nodetrixID'
p4
I0
sS'name'
p5
S'Lipford, H.R.'
p6
ssI1
(dp7
g2
S'A234'
p8
sg4
I1
sg5
S'Silva, C.T.'
p9
ssI2
(dp10
g2
S'A235'
p11
sg4
I2
sg5
S'Perkins, M.'
p12
ssI3
(dp13
g2
S'A236'
p14
sg4
I3
sg5
S'Yanlai Chen'
p15
ssI4
(dp16
g2
S'A237'
p17
sg4
I4
sg5
S'Blascheck, T.'
p18
ssI5
(dp19
g2
S'A230'
p20
sg4
I5
sg5
S'Vo, H.T.'
p21
ssI6
(dp22
g2
S'A231'
p23
sg4
I6
sg5
S'Wilson, L.'
p24
ssI7
(dp25
g2
S'A232'
p26
sg4
I7
sg5
S'Werner, H.'
p27
ssI8
(dp28
g2
S'A233'
p29
sg4
I8
sg5
S'Park, M.'
p30
ssI9
(dp31
g2
S'A335'
p32
sg4
I9
sg5
S'Hanjun Xian'
p33
ssI10
(dp34
g2
S'A334'
p35
sg4
I10
sg5
S'Yuetling Wong'
p36
ssI11
(dp37
g2
S'A337'
p38
sg4
I11
sg5
S'Johri, A.'
p39
ssI12
(dp40
g2
S'A336'
p41
sg4
I12
sg5
S'Zhihua Dong'
p42
ssI13
(dp43
g2
S'A238'
p44
sg4
I13
sg5
S'John, M.'
p45
ssI14
(dp46
g2
S'A239'
p47
sg4
I14
sg5
S'Kurzhals, K.'
p48
ssI15
(dp49
g2
S'A333'
p50
sg4
I15
sg5
S'Xin Chen'
p51
ssI16
(dp52
g2
S'A332'
p53
sg4
I16
sg5
S'Vorvoreanu, M.'
p54
ssI17
(dp55
g2
S'A1173'
p56
sg4
I17
sg5
S'Rosenblum, L.'
p57
ssI18
(dp58
g2
S'A1172'
p59
sg4
I18
sg5
S'Kielman, J.'
p60
ssI19
(dp61
g2
S'A1078'
p62
sg4
I19
sg5
S'Ling Xiao'
p63
ssI20
(dp64
g2
S'A1079'
p65
sg4
I20
sg5
S'Gerth, J.'
p66
ssI21
(dp67
g2
S'A1177'
p68
sg4
I21
sg5
S'Telles, G.P.'
p69
ssI22
(dp70
g2
S'A1176'
p71
sg4
I22
sg5
S'Minghim, R.'
p72
ssI23
(dp73
g2
S'A1175'
p74
sg4
I23
sg5
S'Paulovich, F.V.'
p75
ssI24
(dp76
g2
S'A1174'
p77
sg4
I24
sg5
S'Cuadros, A.M.'
p78
ssI25
(dp79
g2
S'A1072'
p80
sg4
I25
sg5
S'Patrone, D.'
p81
ssI26
(dp82
g2
S'A1073'
p83
sg4
I26
sg5
S'Andrysco, N.'
p84
ssI27
(dp85
g2
S'A1070'
p86
sg4
I27
sg5
S'Diehl, C.'
p87
ssI28
(dp88
g2
S'A1071'
p89
sg4
I28
sg5
S'Pekala, M.'
p90
ssI29
(dp91
g2
S'A1076'
p92
sg4
I29
sg5
S'Kosara, R.'
p93
ssI30
(dp94
g2
S'A1077'
p95
sg4
I30
sg5
S'Sye-Min Chan'
p96
ssI31
(dp97
g2
S'A1074'
p98
sg4
I31
sg5
S'Benes, B.'
p99
ssI32
(dp100
g2
S'A1075'
p101
sg4
I32
sg5
S'Gurney, K.'
p102
ssI33
(dp103
g2
S'A1238'
p104
sg4
I33
sg5
S'Chin, G.'
p105
ssI34
(dp106
g2
S'A1239'
p107
sg4
I34
sg5
S'Aggarwal, V.'
p108
ssI35
(dp109
g2
S'A843'
p110
sg4
I35
sg5
S'Politz, C.'
p111
ssI36
(dp112
g2
S'A1207'
p113
sg4
I36
sg5
S'Llora, X.'
p114
ssI37
(dp115
g2
S'A842'
p116
sg4
I37
sg5
S'Mock, M.'
p117
ssI38
(dp118
g2
S'A898'
p119
sg4
I38
sg5
S'Massjouni, N.'
p120
ssI39
(dp121
g2
S'A841'
p122
sg4
I39
sg5
S'Mladenov, M.'
p123
ssI40
(dp124
g2
S'A899'
p125
sg4
I40
sg5
S'Kanna, R.'
p126
ssI41
(dp127
g2
S'A519'
p128
sg4
I41
sg5
S'Ruchikachorn, P.'
p129
ssI42
(dp130
g2
S'A840'
p131
sg4
I42
sg5
S'MAller, T.'
p132
ssI43
(dp133
g2
S'A908'
p134
sg4
I43
sg5
S'Yi Han'
p135
ssI44
(dp136
g2
S'A909'
p137
sg4
I44
sg5
S'Stuntebeck, E.P.'
p138
ssI45
(dp139
g2
S'A906'
p140
sg4
I45
sg5
S'Livingston, M.A.'
p141
ssI46
(dp142
g2
S'A907'
p143
sg4
I46
sg5
S'Royle, D.'
p144
ssI47
(dp145
g2
S'A904'
p146
sg4
I47
sg5
S'Decker, J.W.'
p147
ssI48
(dp148
g2
S'A905'
p149
sg4
I48
sg5
S'Godwin, A.'
p150
ssI49
(dp151
g2
S'A902'
p152
sg4
I49
sg5
S'Rohrer, R.M.'
p153
ssI50
(dp154
g2
S'A903'
p155
sg4
I50
sg5
S'Foote, H.'
p156
ssI51
(dp157
g2
S'A900'
p158
sg4
I51
sg5
S'Pak Chung Wong'
p159
ssI52
(dp160
g2
S'A901'
p161
sg4
I52
sg5
S'Mackey, P.'
p162
ssI53
(dp163
g2
S'A1230'
p164
sg4
I53
sg5
S'Tandon, S.'
p165
ssI54
(dp166
g2
S'A561'
p167
sg4
I54
sg5
S'Takle, J.'
p168
ssI55
(dp169
g2
S'A845'
p170
sg4
I55
sg5
S'Ji-Dong Yim'
p171
ssI56
(dp172
g2
S'A895'
p173
sg4
I56
sg5
S'Enguehard, R.'
p174
ssI57
(dp175
g2
S'A339'
p176
sg4
I57
sg5
S'Yingcai Wu'
p177
ssI58
(dp178
g2
S'A1233'
p179
sg4
I58
sg5
S'Keel, P.E.'
p180
ssI59
(dp181
g2
S'A1232'
p182
sg4
I59
sg5
S'Schroh, D.'
p183
ssI60
(dp184
g2
S'A518'
p185
sg4
I60
sg5
S'Bing Wang'
p186
ssI61
(dp187
g2
S'A338'
p188
sg4
I61
sg5
S'Guodao Sun'
p189
ssI62
(dp190
g2
S'A696'
p191
sg4
I62
sg5
S'Icke, I.'
p192
ssI63
(dp193
g2
S'A697'
p194
sg4
I63
sg5
S'Rosenberg, A.'
p195
ssI64
(dp196
g2
S'A694'
p197
sg4
I64
sg5
S'Varun Jain'
p198
ssI65
(dp199
g2
S'A695'
p200
sg4
I65
sg5
S'Gad, S.'
p201
ssI66
(dp202
g2
S'A692'
p203
sg4
I66
sg5
S'Esteva, M.'
p204
ssI67
(dp205
g2
S'A693'
p206
sg4
I67
sg5
S'Suyog Dutt Jain'
p207
ssI68
(dp208
g2
S'A759'
p209
sg4
I68
sg5
S'Pinaud, B.'
p210
ssI69
(dp211
g2
S'A758'
p212
sg4
I69
sg5
S'Ruiz, C.'
p213
ssI70
(dp214
g2
S'A757'
p215
sg4
I70
sg5
S'Rundensteiner, E.A.'
p216
ssI71
(dp217
g2
S'A756'
p218
sg4
I71
sg5
S'Ward, M.O.'
p219
ssI72
(dp220
g2
S'A755'
p221
sg4
I72
sg5
S'Zhenyu Guo'
p222
ssI73
(dp223
g2
S'A754'
p224
sg4
I73
sg5
S'Marai, G.E.'
p225
ssI74
(dp226
g2
S'A753'
p227
sg4
I74
sg5
S'Wenskovitch, J.E.'
p228
ssI75
(dp229
g2
S'A752'
p230
sg4
I75
sg5
S'Rothenberger, S.D.'
p231
ssI76
(dp232
g2
S'A698'
p233
sg4
I76
sg5
S'Banfi, N.'
p234
ssI77
(dp235
g2
S'A699'
p236
sg4
I77
sg5
S'Dudas, L.'
p237
ssI78
(dp238
g2
S'A51'
p239
sg4
I78
sg5
S'Lei Shi'
p240
ssI79
(dp241
g2
S'A50'
p242
sg4
I79
sg5
S'Yifan Hu'
p243
ssI80
(dp244
g2
S'A53'
p245
sg4
I80
sg5
S'Yutao Zhang'
p246
ssI81
(dp247
g2
S'A52'
p248
sg4
I81
sg5
S'Xinzhu Mu'
p249
ssI82
(dp250
g2
S'A55'
p251
sg4
I82
sg5
S'Yanhong Wu'
p252
ssI83
(dp253
g2
S'A54'
p254
sg4
I83
sg5
S'Jie Tang'
p255
ssI84
(dp256
g2
S'A57'
p257
sg4
I84
sg5
S'Jian Zhao'
p258
ssI85
(dp259
g2
S'A56'
p260
sg4
I85
sg5
S'Pitipornvivat, N.'
p261
ssI86
(dp262
g2
S'A59'
p263
sg4
I86
sg5
S'Guowei Huang'
p264
ssI87
(dp265
g2
S'A58'
p266
sg4
I87
sg5
S'Sixiao Yang'
p267
ssI88
(dp268
g2
S'A1237'
p269
sg4
I88
sg5
S'Huang Shiping'
p270
ssI89
(dp271
g2
S'A995'
p272
sg4
I89
sg5
S'Nieselt, K.'
p273
ssI90
(dp274
g2
S'A700'
p275
sg4
I90
sg5
S'Fekete, Z.'
p276
ssI91
(dp277
g2
S'A331'
p278
sg4
I91
sg5
S'Madhavan, K.'
p279
ssI92
(dp280
g2
S'A330'
p281
sg4
I92
sg5
S'Gotz, D.'
p282
ssI93
(dp283
g2
S'A623'
p284
sg4
I93
sg5
S'Jankowska, M.'
p285
ssI94
(dp286
g2
S'A622'
p287
sg4
I94
sg5
S'Gramazio, C.'
p288
ssI95
(dp289
g2
S'A621'
p290
sg4
I95
sg5
S'Davey, J.'
p291
ssI96
(dp292
g2
S'A620'
p293
sg4
I96
sg5
S'Dill, J.'
p294
ssI97
(dp295
g2
S'A627'
p296
sg4
I97
sg5
S'Ojili, P.K.R.'
p297
ssI98
(dp298
g2
S'A626'
p299
sg4
I98
sg5
S'Hossain, M.S.'
p300
ssI99
(dp301
g2
S'A625'
p302
sg4
I99
sg5
S'Milios, E.'
p303
ssI100
(dp304
g2
S'A624'
p305
sg4
I100
sg5
S'Keselj, V.'
p306
ssI101
(dp307
g2
S'A999'
p308
sg4
I101
sg5
S'Bohn, S.'
p309
ssI102
(dp310
g2
S'A998'
p311
sg4
I102
sg5
S'Walteros, P.R.'
p312
ssI103
(dp313
g2
S'A629'
p314
sg4
I103
sg5
S'Muller, R.'
p315
ssI104
(dp316
g2
S'A628'
p317
sg4
I104
sg5
S'Grimm, C.'
p318
ssI105
(dp319
g2
S'A1229'
p320
sg4
I105
sg5
S'Kesheng Wu'
p321
ssI106
(dp322
g2
S'A472'
p323
sg4
I106
sg5
S'Wei Zeng'
p324
ssI107
(dp325
g2
S'A473'
p326
sg4
I107
sg5
S'Chi-Wing Fu'
p327
ssI108
(dp328
g2
S'A470'
p329
sg4
I108
sg5
S'Huntzinger, D.N.'
p330
ssI109
(dp331
g2
S'A471'
p332
sg4
I109
sg5
S'Cook, R.'
p333
ssI110
(dp334
g2
S'A476'
p335
sg4
I110
sg5
S'Landstorfer, J.'
p336
ssI111
(dp337
g2
S'A477'
p338
sg4
I111
sg5
S'Herrmann, I.'
p339
ssI112
(dp340
g2
S'A474'
p341
sg4
I112
sg5
S'Arisona, S.M.'
p342
ssI113
(dp343
g2
S'A475'
p344
sg4
I113
sg5
S'Erath, A.'
p345
ssI114
(dp346
g2
S'A573'
p347
sg4
I114
sg5
S'Crouser, R.J.'
p348
ssI115
(dp349
g2
S'A572'
p350
sg4
I115
sg5
S'Ahmed, Z.'
p351
ssI116
(dp352
g2
S'A478'
p353
sg4
I116
sg5
S'Stange, J.-E.'
p354
ssI117
(dp355
g2
S'A479'
p356
sg4
I117
sg5
S'Dork, M.'
p357
ssI118
(dp358
g2
S'A577'
p359
sg4
I118
sg5
S'Jingjing Liu'
p360
ssI119
(dp361
g2
S'A576'
p362
sg4
I119
sg5
S'Fisher, B.'
p363
ssI120
(dp364
g2
S'A575'
p365
sg4
I120
sg5
S'Riecke, B.E.'
p366
ssI121
(dp367
g2
S'A574'
p368
sg4
I121
sg5
S'Calderon, N.A.'
p369
ssI122
(dp370
g2
S'A1182'
p371
sg4
I122
sg5
S'Sang-joon Lee'
p372
ssI123
(dp373
g2
S'A1183'
p374
sg4
I123
sg5
S'Gigitashvilli, S.'
p375
ssI124
(dp376
g2
S'A1180'
p377
sg4
I124
sg5
S'Tang, D.'
p378
ssI125
(dp379
g2
S'A1181'
p380
sg4
I125
sg5
S'Jae Choi'
p381
ssI126
(dp382
g2
S'A1186'
p383
sg4
I126
sg5
S'Hertzog, P.'
p384
ssI127
(dp385
g2
S'A1187'
p386
sg4
I127
sg5
S'Lalanne, D.'
p387
ssI128
(dp388
g2
S'A1184'
p389
sg4
I128
sg5
S'Wilson, J.'
p390
ssI129
(dp391
g2
S'A1185'
p392
sg4
I129
sg5
S'Catravas, P.'
p393
ssI130
(dp394
g2
S'A1188'
p395
sg4
I130
sg5
S'Bailey, S.J.'
p396
ssI131
(dp397
g2
S'A1189'
p398
sg4
I131
sg5
S'Runge, K.J.'
p399
ssI132
(dp400
g2
S'A691'
p401
sg4
I132
sg5
S'Weijia Xu'
p402
ssI133
(dp403
g2
S'A997'
p404
sg4
I133
sg5
S'Fujimoto, E.'
p405
ssI134
(dp406
g2
S'A876'
p407
sg4
I134
sg5
S'Heyer, G.'
p408
ssI135
(dp409
g2
S'A877'
p410
sg4
I135
sg5
S'Weber, G.H.'
p411
ssI136
(dp412
g2
S'A874'
p413
sg4
I136
sg5
S'Oesterling, P.'
p414
ssI137
(dp415
g2
S'A875'
p416
sg4
I137
sg5
S'Teresniak, S.'
p417
ssI138
(dp418
g2
S'A872'
p419
sg4
I138
sg5
S'Wall, J.'
p420
ssI139
(dp421
g2
S'A873'
p422
sg4
I139
sg5
S'Boukhelifa, N.'
p423
ssI140
(dp424
g2
S'A870'
p425
sg4
I140
sg5
S'Overby, D.'
p426
ssI141
(dp427
g2
S'A871'
p428
sg4
I141
sg5
S'Keyser, J.'
p429
ssI142
(dp430
g2
S'A207'
p431
sg4
I142
sg5
S'Duen Horng Chau'
p432
ssI143
(dp433
g2
S'A1245'
p434
sg4
I143
sg5
S'Weichao Wang'
p435
ssI144
(dp436
g2
S'A1218'
p437
sg4
I144
sg5
S'Mellema, A.'
p438
ssI145
(dp439
g2
S'A1219'
p440
sg4
I145
sg5
S'Collins, T.'
p441
ssI146
(dp442
g2
S'A878'
p443
sg4
I146
sg5
S'Li Tan'
p444
ssI147
(dp445
g2
S'A879'
p446
sg4
I147
sg5
S'Xiaoxiao Lian'
p447
ssI148
(dp448
g2
S'A199'
p449
sg4
I148
sg5
S'Jun Wang'
p450
ssI149
(dp451
g2
S'A198'
p452
sg4
I149
sg5
S'Ellis, G.'
p453
ssI150
(dp454
g2
S'A191'
p455
sg4
I150
sg5
S'Jackle, D.'
p456
ssI151
(dp457
g2
S'A190'
p458
sg4
I151
sg5
S'Papka, M.E.'
p459
ssI152
(dp460
g2
S'A193'
p461
sg4
I152
sg5
S'Schreck, T.'
p462
ssI153
(dp463
g2
S'A192'
p464
sg4
I153
sg5
S'Fischer, F.'
p465
ssI154
(dp466
g2
S'A195'
p467
sg4
I154
sg5
S'Sacha, D.'
p468
ssI155
(dp469
g2
S'A194'
p470
sg4
I155
sg5
S'Keim, D.A.'
p471
ssI156
(dp472
g2
S'A197'
p473
sg4
I156
sg5
S'Bum Chul Kwon'
p474
ssI157
(dp475
g2
S'A196'
p476
sg4
I157
sg5
S'Senaratne, H.'
p477
ssI158
(dp478
g2
S'A371'
p479
sg4
I158
sg5
S'Braud, A.'
p480
ssI159
(dp481
g2
S'A370'
p482
sg4
I159
sg5
S'Lalande, N.'
p483
ssI160
(dp484
g2
S'A373'
p485
sg4
I160
sg5
S'Le Ber, F.'
p486
ssI161
(dp487
g2
S'A372'
p488
sg4
I161
sg5
S'Bringay, S.'
p489
ssI162
(dp490
g2
S'A375'
p491
sg4
I162
sg5
S'Teisseire, M.'
p492
ssI163
(dp493
g2
S'A374'
p494
sg4
I163
sg5
S'Poncelet, P.'
p495
ssI164
(dp496
g2
S'A377'
p497
sg4
I164
sg5
S'Kruger, R.'
p498
ssI165
(dp499
g2
S'A376'
p500
sg4
I165
sg5
S'Bertini, E.'
p501
ssI166
(dp502
g2
S'A379'
p503
sg4
I166
sg5
S'Feng Wang'
p504
ssI167
(dp505
g2
S'A378'
p506
sg4
I167
sg5
S'Thom, D.'
p507
ssI168
(dp508
g2
S'A526'
p509
sg4
I168
sg5
S'Cap, C.H.'
p510
ssI169
(dp511
g2
S'A278'
p512
sg4
I169
sg5
S'Aigner, W.'
p513
ssI170
(dp514
g2
S'A279'
p515
sg4
I170
sg5
S'Rind, A.'
p516
ssI171
(dp517
g2
S'A175'
p518
sg4
I171
sg5
S'Miksch, S.'
p519
ssI172
(dp520
g2
S'A174'
p521
sg4
I172
sg5
S'Alsallakh, B.'
p522
ssI173
(dp523
g2
S'A173'
p524
sg4
I173
sg5
S'Bogl, M.'
p525
ssI174
(dp526
g2
S'A172'
p527
sg4
I174
sg5
S'Kirste, T.'
p528
ssI175
(dp529
g2
S'A171'
p530
sg4
I175
sg5
S'Kruger, F.'
p531
ssI176
(dp532
g2
S'A170'
p533
sg4
I176
sg5
S'Mueller, K.'
p534
ssI177
(dp535
g2
S'A270'
p536
sg4
I177
sg5
S'Samuels, L.R.'
p537
ssI178
(dp538
g2
S'A271'
p539
sg4
I178
sg5
S'Greevy, R.A.'
p540
ssI179
(dp541
g2
S'A272'
p542
sg4
I179
sg5
S'Anreddy, S.'
p543
ssI180
(dp544
g2
S'A273'
p545
sg4
I180
sg5
S'Song Zhang'
p546
ssI181
(dp547
g2
S'A274'
p548
sg4
I181
sg5
S'Mercer, A.'
p549
ssI182
(dp550
g2
S'A275'
p551
sg4
I182
sg5
S'Dyer, J.'
p552
ssI183
(dp553
g2
S'A276'
p554
sg4
I183
sg5
S'Swan, J.E.'
p555
ssI184
(dp556
g2
S'A178'
p557
sg4
I184
sg5
S'Stavropoulos, H.'
p558
ssI185
(dp559
g2
S'A1137'
p560
sg4
I185
sg5
S'Tesone, D.R.'
p561
ssI186
(dp562
g2
S'A1136'
p563
sg4
I186
sg5
S'Satoh, S.'
p564
ssI187
(dp565
g2
S'A1135'
p566
sg4
I187
sg5
S'Jianping Fan'
p567
ssI188
(dp568
g2
S'A1134'
p569
sg4
I188
sg5
S'Hangzai Luo'
p570
ssI189
(dp571
g2
S'A1133'
p572
sg4
I189
sg5
S'Di Yang'
p573
ssI190
(dp574
g2
S'A1132'
p575
sg4
I190
sg5
S'Parent, R.'
p576
ssI191
(dp577
g2
S'A1131'
p578
sg4
I191
sg5
S'Machiraju, R.'
p579
ssI192
(dp580
g2
S'A1130'
p581
sg4
I192
sg5
S'Irfanoglu, O.'
p582
ssI193
(dp583
g2
S'A168'
p584
sg4
I193
sg5
S'Dan Zhang'
p585
ssI194
(dp586
g2
S'A251'
p587
sg4
I194
sg5
S'Beck, F.'
p588
ssI195
(dp589
g2
S'A1171'
p590
sg4
I195
sg5
S'Dongning Luo'
p591
ssI196
(dp592
g2
S'A1139'
p593
sg4
I196
sg5
S'Hyunmo Kang'
p594
ssI197
(dp595
g2
S'A1138'
p596
sg4
I197
sg5
S'Goodall, J.R.'
p597
ssI198
(dp598
g2
S'A285'
p599
sg4
I198
sg5
S'Dias, F.'
p600
ssI199
(dp601
g2
S'A284'
p602
sg4
I199
sg5
S'Valdivia, P.'
p603
ssI200
(dp604
g2
S'A287'
p605
sg4
I200
sg5
S'Nonato, L.G.'
p606
ssI201
(dp607
g2
S'A286'
p608
sg4
I201
sg5
S'Petronetto, F.'
p609
ssI202
(dp610
g2
S'A281'
p611
sg4
I202
sg5
S'Palomo, C.'
p612
ssI203
(dp613
g2
S'A280'
p614
sg4
I203
sg5
S'Lammarsch, T.'
p615
ssI204
(dp616
g2
S'A283'
p617
sg4
I204
sg5
S'Freire, J.'
p618
ssI205
(dp619
g2
S'A282'
p620
sg4
I205
sg5
S'Zhan Guo'
p621
ssI206
(dp622
g2
S'A182'
p623
sg4
I206
sg5
S'Jie Lu'
p624
ssI207
(dp625
g2
S'A701'
p626
sg4
I207
sg5
S'Gobolos-Szabo, J.'
p627
ssI208
(dp628
g2
S'A289'
p629
sg4
I208
sg5
S'Yale Song'
p630
ssI209
(dp631
g2
S'A288'
p632
sg4
I209
sg5
S'Zhen Wen'
p633
ssI210
(dp634
g2
S'A861'
p635
sg4
I210
sg5
S'Lehmann, D.J.'
p636
ssI211
(dp637
g2
S'A728'
p638
sg4
I211
sg5
S'Yauilla, A.R.'
p639
ssI212
(dp640
g2
S'A528'
p641
sg4
I212
sg5
S'Monroe, M.'
p642
ssI213
(dp643
g2
S'A729'
p644
sg4
I213
sg5
S'Su, S.L.'
p645
ssI214
(dp646
g2
S'A750'
p647
sg4
I214
sg5
S'Hemery, P.'
p648
ssI215
(dp649
g2
S'A529'
p650
sg4
I215
sg5
S'Rongjian Lan'
p651
ssI216
(dp652
g2
S'A304'
p653
sg4
I216
sg5
S'Ken, S.'
p654
ssI217
(dp655
g2
S'A305'
p656
sg4
I217
sg5
S'Laprie, A.'
p657
ssI218
(dp658
g2
S'A306'
p659
sg4
I218
sg5
S'Buhler, k.'
p660
ssI219
(dp661
g2
S'A307'
p662
sg4
I219
sg5
S'Sungahn Ko'
p663
ssI220
(dp664
g2
S'A300'
p665
sg4
I220
sg5
S'Hujun Bao'
p666
ssI221
(dp667
g2
S'A301'
p668
sg4
I221
sg5
S'Nunes, M.'
p669
ssI222
(dp670
g2
S'A302'
p671
sg4
I222
sg5
S'Rowland, B.'
p672
ssI223
(dp673
g2
S'A303'
p674
sg4
I223
sg5
S'Schlachter, M.'
p675
ssI224
(dp676
g2
S'A415'
p677
sg4
I224
sg5
S'Worring, M.'
p678
ssI225
(dp679
g2
S'A390'
p680
sg4
I225
sg5
S'Sedlmair, M.'
p681
ssI226
(dp682
g2
S'A308'
p683
sg4
I226
sg5
S'Afzal, S.'
p684
ssI227
(dp685
g2
S'A309'
p686
sg4
I227
sg5
S'Walton, S.'
p687
ssI228
(dp688
g2
S'A1178'
p689
sg4
I228
sg5
S'Lam, H.'
p690
ssI229
(dp691
g2
S'A649'
p692
sg4
I229
sg5
S'Smuc, M.'
p693
ssI230
(dp694
g2
S'A704'
p695
sg4
I230
sg5
S'Szabo, A.'
p696
ssI231
(dp697
g2
S'A993'
p698
sg4
I231
sg5
S'Vieux, R.'
p699
ssI232
(dp700
g2
S'A1003'
p701
sg4
I232
sg5
S'Vieland, V.J.'
p702
ssI233
(dp703
g2
S'A1002'
p704
sg4
I233
sg5
S'Han-Wei Shen'
p705
ssI234
(dp706
g2
S'A1001'
p707
sg4
I234
sg5
S'Sang-Cheol Seok'
p708
ssI235
(dp709
g2
S'A1000'
p710
sg4
I235
sg5
S'Nouanesengsy, B.'
p711
ssI236
(dp712
g2
S'A1007'
p713
sg4
I236
sg5
S'Haack, J.'
p714
ssI237
(dp715
g2
S'A1006'
p716
sg4
I237
sg5
S'Sravanthi, K.'
p717
ssI238
(dp718
g2
S'A1005'
p719
sg4
I238
sg5
S'Agrawal, S.'
p720
ssI239
(dp721
g2
S'A1004'
p722
sg4
I239
sg5
S'Grinstein, G.'
p723
ssI240
(dp724
g2
S'A1090'
p725
sg4
I240
sg5
S'Yujie Liu'
p726
ssI241
(dp727
g2
S'A1009'
p728
sg4
I241
sg5
S'Thomas, J.'
p729
ssI242
(dp730
g2
S'A1008'
p731
sg4
I242
sg5
S'Varley, C.'
p732
ssI243
(dp733
g2
S'A32'
p734
sg4
I243
sg5
S'Heimerl, F.'
p735
ssI244
(dp736
g2
S'A1091'
p737
sg4
I244
sg5
S'Jacobs, D.'
p738
ssI245
(dp739
g2
S'A963'
p740
sg4
I245
sg5
S'Hao Zhou'
p741
ssI246
(dp742
g2
S'A454'
p743
sg4
I246
sg5
S'Kothur, P.'
p744
ssI247
(dp745
g2
S'A658'
p746
sg4
I247
sg5
S'Dongxing Teng'
p747
ssI248
(dp748
g2
S'A659'
p749
sg4
I248
sg5
S'Haiyan Yang'
p750
ssI249
(dp751
g2
S'A455'
p752
sg4
I249
sg5
S'Sips, M.'
p753
ssI250
(dp754
g2
S'A652'
p755
sg4
I250
sg5
S'Vachon, F.'
p756
ssI251
(dp757
g2
S'A653'
p758
sg4
I251
sg5
S'Gagnon, J.'
p759
ssI252
(dp760
g2
S'A650'
p761
sg4
I252
sg5
S'Mayr, E.'
p762
ssI253
(dp763
g2
S'A651'
p764
sg4
I253
sg5
S'Chamberland, C.'
p765
ssI254
(dp766
g2
S'A656'
p767
sg4
I254
sg5
S'Green, T.M.'
p768
ssI255
(dp769
g2
S'A657'
p770
sg4
I255
sg5
S'Kachkaev, A.'
p771
ssI256
(dp772
g2
S'A654'
p773
sg4
I256
sg5
S'Banbury, S.'
p774
ssI257
(dp775
g2
S'A655'
p776
sg4
I257
sg5
S'Tremblay, S.'
p777
ssI258
(dp778
g2
S'A457'
p779
sg4
I258
sg5
S'Dransch, D.'
p780
ssI259
(dp781
g2
S'A99'
p782
sg4
I259
sg5
S'Matkovic, K.'
p783
ssI260
(dp784
g2
S'A98'
p785
sg4
I260
sg5
S'Groller, E.'
p786
ssI261
(dp787
g2
S'A95'
p788
sg4
I261
sg5
S'Ferracutti, G.'
p789
ssI262
(dp790
g2
S'A94'
p791
sg4
I262
sg5
S'Gargiulo, F.'
p792
ssI263
(dp793
g2
S'A97'
p794
sg4
I263
sg5
S'Bjerg, E.'
p795
ssI264
(dp796
g2
S'A96'
p797
sg4
I264
sg5
S'Castro, S.'
p798
ssI265
(dp799
g2
S'A91'
p800
sg4
I265
sg5
S'Mniszewski, S.'
p801
ssI266
(dp802
g2
S'A90'
p803
sg4
I266
sg5
S'Xue Wu'
p804
ssI267
(dp805
g2
S'A93'
p806
sg4
I267
sg5
S'Lujan Ganuza, M.'
p807
ssI268
(dp808
g2
S'A92'
p809
sg4
I268
sg5
S'Kwan-Liu Ma'
p810
ssI269
(dp811
g2
S'A955'
p812
sg4
I269
sg5
S'Pedreschi, D.'
p813
ssI270
(dp814
g2
S'A954'
p815
sg4
I270
sg5
S'Nanni, M.'
p816
ssI271
(dp817
g2
S'A957'
p818
sg4
I271
sg5
S'Giereth, M.'
p819
ssI272
(dp820
g2
S'A956'
p821
sg4
I272
sg5
S'Giannotti, F.'
p822
ssI273
(dp823
g2
S'A951'
p824
sg4
I273
sg5
S'Tarkkanen, S.'
p825
ssI274
(dp826
g2
S'A950'
p827
sg4
I274
sg5
S'Jungk, P.'
p828
ssI275
(dp829
g2
S'A953'
p830
sg4
I275
sg5
S'Hakanen, J.'
p831
ssI276
(dp832
g2
S'A952'
p833
sg4
I276
sg5
S'Miettinen, K.'
p834
ssI277
(dp835
g2
S'A1098'
p836
sg4
I277
sg5
S'Franklin, L.'
p837
ssI278
(dp838
g2
S'A453'
p839
sg4
I278
sg5
S'Jinyan Chen'
p840
ssI279
(dp841
g2
S'A959'
p842
sg4
I279
sg5
S'Dunlavy, D.M.'
p843
ssI280
(dp844
g2
S'A958'
p845
sg4
I280
sg5
S'Crossno, P.'
p846
ssI281
(dp847
g2
S'A1099'
p848
sg4
I281
sg5
S'May, R.'
p849
ssI282
(dp850
g2
S'A882'
p851
sg4
I282
sg5
S'Ziegler, H.'
p852
ssI283
(dp853
g2
S'A1109'
p854
sg4
I283
sg5
S'Wade, M.'
p855
ssI284
(dp856
g2
S'A249'
p857
sg4
I284
sg5
S'Jina Huh'
p858
ssI285
(dp859
g2
S'A494'
p860
sg4
I285
sg5
S'Telea, A.'
p861
ssI286
(dp862
g2
S'A104'
p863
sg4
I286
sg5
S'Jie Liang'
p864
ssI287
(dp865
g2
S'A161'
p866
sg4
I287
sg5
S'Fields, B.'
p867
ssI288
(dp868
g2
S'A511'
p869
sg4
I288
sg5
S'Schultz, T.'
p870
ssI289
(dp871
g2
S'A666'
p872
sg4
I289
sg5
S'Burch, M.'
p873
ssI290
(dp874
g2
S'A510'
p875
sg4
I290
sg5
S'Kohlhammer, J.'
p876
ssI291
(dp877
g2
S'A964'
p878
sg4
I291
sg5
S'Shaverdian, A.A.'
p879
ssI292
(dp880
g2
S'A513'
p881
sg4
I292
sg5
S'Bosch, H.'
p882
ssI293
(dp883
g2
S'A965'
p884
sg4
I293
sg5
S'Jagadish, H.V.'
p885
ssI294
(dp886
g2
S'A399'
p887
sg4
I294
sg5
S'Waser, J.'
p888
ssI295
(dp889
g2
S'A591'
p890
sg4
I295
sg5
S'Patel, C.'
p891
ssI296
(dp892
g2
S'A512'
p893
sg4
I296
sg5
S'Kindlmann, G.'
p894
ssI297
(dp895
g2
S'A966'
p896
sg4
I297
sg5
S'Michailidis, G.'
p897
ssI298
(dp898
g2
S'A483'
p899
sg4
I298
sg5
S'Auzinger, T.'
p900
ssI299
(dp901
g2
S'A482'
p902
sg4
I299
sg5
S'Preiner, R.'
p903
ssI300
(dp904
g2
S'A481'
p905
sg4
I300
sg5
S'Schmidt, J.'
p906
ssI301
(dp907
g2
S'A480'
p908
sg4
I301
sg5
S'Wettach, R.'
p909
ssI302
(dp910
g2
S'A487'
p911
sg4
I302
sg5
S'Slingsby, A.'
p912
ssI303
(dp913
g2
S'A486'
p914
sg4
I303
sg5
S'Walker, R.'
p915
ssI304
(dp916
g2
S'A485'
p917
sg4
I304
sg5
S'Bruckner, S.'
p918
ssI305
(dp919
g2
S'A484'
p920
sg4
I305
sg5
S'Wimmer, T.'
p921
ssI306
(dp922
g2
S'A960'
p923
sg4
I306
sg5
S'Shead, T.'
p924
ssI307
(dp925
g2
S'A489'
p926
sg4
I307
sg5
S'Wood, J.'
p927
ssI308
(dp928
g2
S'A488'
p929
sg4
I308
sg5
S'Dykes, J.'
p930
ssI309
(dp931
g2
S'A961'
p932
sg4
I309
sg5
S'Kincaid, R.'
p933
ssI310
(dp934
g2
S'A713'
p935
sg4
I310
sg5
S'Bauer, J.'
p936
ssI311
(dp937
g2
S'A712'
p938
sg4
I311
sg5
S'Roberts, J.C.'
p939
ssI312
(dp940
g2
S'A711'
p941
sg4
I312
sg5
S'Teahan, W.'
p942
ssI313
(dp943
g2
S'A710'
p944
sg4
I313
sg5
S'Hughes, C.'
p945
ssI314
(dp946
g2
S'A717'
p947
sg4
I314
sg5
S'Hurter, C.'
p948
ssI315
(dp949
g2
S'A716'
p950
sg4
I315
sg5
S'Freeman, J.G.'
p951
ssI316
(dp952
g2
S'A715'
p953
sg4
I316
sg5
S'Ebert, A.'
p954
ssI317
(dp955
g2
S'A714'
p956
sg4
I317
sg5
S'Thelen, S.'
p957
ssI318
(dp958
g2
S'A719'
p959
sg4
I318
sg5
S'Wrobel, S.'
p960
ssI319
(dp961
g2
S'A718'
p962
sg4
I319
sg5
S'Rinzivillo, S.'
p963
ssI320
(dp964
g2
S'A502'
p965
sg4
I320
sg5
S'Agrawala, M.'
p966
ssI321
(dp967
g2
S'A503'
p968
sg4
I321
sg5
S'Balakrishnan, R.'
p969
ssI322
(dp970
g2
S'A500'
p971
sg4
I322
sg5
S'Steinitz, A.'
p972
ssI323
(dp973
g2
S'A501'
p974
sg4
I323
sg5
S'Hartmann, B.'
p975
ssI324
(dp976
g2
S'A506'
p977
sg4
I324
sg5
S'Bernard, J.'
p978
ssI325
(dp979
g2
S'A507'
p980
sg4
I325
sg5
S'Wilhelm, N.'
p981
ssI326
(dp982
g2
S'A504'
p983
sg4
I326
sg5
S'Meghdadi, A.H.'
p984
ssI327
(dp985
g2
S'A505'
p986
sg4
I327
sg5
S'Irani, P.'
p987
ssI328
(dp988
g2
S'A508'
p989
sg4
I328
sg5
S'Kruger, B.'
p990
ssI329
(dp991
g2
S'A509'
p992
sg4
I329
sg5
S'May, T.'
p993
ssI330
(dp994
g2
S'A723'
p995
sg4
I330
sg5
S'Getoor, L.'
p996
ssI331
(dp997
g2
S'A139'
p998
sg4
I331
sg5
S'Andrienko, N.'
p999
ssI332
(dp1000
g2
S'A138'
p1001
sg4
I332
sg5
S'Roskosch, P.'
p1002
ssI333
(dp1003
g2
S'A133'
p1004
sg4
I333
sg5
S'Wolverton, M.'
p1005
ssI334
(dp1006
g2
S'A132'
p1007
sg4
I334
sg5
S'Israel, D.'
p1008
ssI335
(dp1009
g2
S'A131'
p1010
sg4
I335
sg5
S'Cramer, N.'
p1011
ssI336
(dp1012
g2
S'A130'
p1013
sg4
I336
sg5
S'Piringer, H.'
p1014
ssI337
(dp1015
g2
S'A137'
p1016
sg4
I337
sg5
S'Brodkorb, F.'
p1017
ssI338
(dp1018
g2
S'A136'
p1019
sg4
I338
sg5
S'von Landesberger, T.'
p1020
ssI339
(dp1021
g2
S'A135'
p1022
sg4
I339
sg5
S'Burtner, R.'
p1023
ssI340
(dp1024
g2
S'A134'
p1025
sg4
I340
sg5
S'Bruce, J.'
p1026
ssI341
(dp1027
g2
S'A807'
p1028
sg4
I341
sg5
S'Endicott-Popovsky, B.'
p1029
ssI342
(dp1030
g2
S'A806'
p1031
sg4
I342
sg5
S'Lemieux, V.'
p1032
ssI343
(dp1033
g2
S'A805'
p1034
sg4
I343
sg5
S'Jacovi, M.'
p1035
ssI344
(dp1036
g2
S'A436'
p1037
sg4
I344
sg5
S'Zhao-Peng Meng'
p1038
ssI345
(dp1039
g2
S'A437'
p1040
sg4
I345
sg5
S''
p1041
ssI346
(dp1042
g2
S'A434'
p1043
sg4
I346
sg5
S'Jie Li'
p1044
ssI347
(dp1045
g2
S'A435'
p1046
sg4
I347
sg5
S'Kang Zhang'
p1047
ssI348
(dp1048
g2
S'A432'
p1049
sg4
I348
sg5
S'Kennedy, S.'
p1050
ssI349
(dp1051
g2
S'A433'
p1052
sg4
I349
sg5
S'Tolone, W.'
p1053
ssI350
(dp1054
g2
S'A430'
p1055
sg4
I350
sg5
S'Van Riper, D.'
p1056
ssI351
(dp1057
g2
S'A431'
p1058
sg4
I351
sg5
S'Gaither, K.'
p1059
ssI352
(dp1060
g2
S'A825'
p1061
sg4
I352
sg5
S'Yizhou Yu'
p1062
ssI353
(dp1063
g2
S'A1262'
p1064
sg4
I353
sg5
S'Mehta, S.'
p1065
ssI354
(dp1066
g2
S'A827'
p1067
sg4
I354
sg5
S'Ryan, R.'
p1068
ssI355
(dp1069
g2
S'A826'
p1070
sg4
I355
sg5
S'Baoquan Chen'
p1071
ssI356
(dp1072
g2
S'A821'
p1073
sg4
I356
sg5
S'Morris, M.R.'
p1074
ssI357
(dp1075
g2
S'A820'
p1076
sg4
I357
sg5
S'Fisher, D.'
p1077
ssI358
(dp1078
g2
S'A1265'
p1079
sg4
I358
sg5
S'Ratner, A.'
p1080
ssI359
(dp1081
g2
S'A439'
p1082
sg4
I359
sg5
S'Honghui Mei'
p1083
ssI360
(dp1084
g2
S'A801'
p1085
sg4
I360
sg5
S'Mei-Chun Hsu'
p1086
ssI361
(dp1087
g2
S'A800'
p1088
sg4
I361
sg5
S'Haug, L.'
p1089
ssI362
(dp1090
g2
S'A533'
p1091
sg4
I362
sg5
S'Andrews, C.'
p1092
ssI363
(dp1093
g2
S'A227'
p1094
sg4
I363
sg5
S'Ferreira, N.'
p1095
ssI364
(dp1096
g2
S'A226'
p1097
sg4
I364
sg5
S'Veas, E.'
p1098
ssI365
(dp1099
g2
S'A225'
p1100
sg4
I365
sg5
S'Sabol, V.'
p1101
ssI366
(dp1102
g2
S'A224'
p1103
sg4
I366
sg5
S'di Sciascio, C.'
p1104
ssI367
(dp1105
g2
S'A223'
p1106
sg4
I367
sg5
S'Wen-Chin Chen'
p1107
ssI368
(dp1108
g2
S'A222'
p1109
sg4
I368
sg5
S'Hsu, W.'
p1110
ssI369
(dp1111
g2
S'A221'
p1112
sg4
I369
sg5
S'Yin-Hsi Kuo'
p1113
ssI370
(dp1114
g2
S'A220'
p1115
sg4
I370
sg5
S'Wen-Feng Cheng'
p1116
ssI371
(dp1117
g2
S'A340'
p1118
sg4
I371
sg5
S'Tai-Quan Peng'
p1119
ssI372
(dp1120
g2
S'A341'
p1121
sg4
I372
sg5
S'Zhu, J.J.H.'
p1122
ssI373
(dp1123
g2
S'A342'
p1124
sg4
I373
sg5
S'Janetzko, H.'
p1125
ssI374
(dp1126
g2
S'A343'
p1127
sg4
I374
sg5
S'Stein, M.'
p1128
ssI375
(dp1129
g2
S'A344'
p1130
sg4
I375
sg5
S'Deussen, O.'
p1131
ssI376
(dp1132
g2
S'A345'
p1133
sg4
I376
sg5
S'Behrisch, M.'
p1134
ssI377
(dp1135
g2
S'A229'
p1136
sg4
I377
sg5
S'Doraiswamy, H.'
p1137
ssI378
(dp1138
g2
S'A228'
p1139
sg4
I378
sg5
S'Lage, M.'
p1140
ssI379
(dp1141
g2
S'A1047'
p1142
sg4
I379
sg5
S'Bodnar, J.W.'
p1143
ssI380
(dp1144
g2
S'A1046'
p1145
sg4
I380
sg5
S'Card, S.K.'
p1146
ssI381
(dp1147
g2
S'A1045'
p1148
sg4
I381
sg5
S'Oganov, A.R.'
p1149
ssI382
(dp1150
g2
S'A1044'
p1151
sg4
I382
sg5
S'Valle, M.'
p1152
ssI383
(dp1153
g2
S'A1043'
p1154
sg4
I383
sg5
S'Wright, W.'
p1155
ssI384
(dp1156
g2
S'A1042'
p1157
sg4
I384
sg5
S'Harper, R.'
p1158
ssI385
(dp1159
g2
S'A1041'
p1160
sg4
I385
sg5
S'Eccles, R.'
p1161
ssI386
(dp1162
g2
S'A1040'
p1163
sg4
I386
sg5
S'Kapler, T.'
p1164
ssI387
(dp1165
g2
S'A1049'
p1166
sg4
I387
sg5
S'Brusilovsky, P.'
p1167
ssI388
(dp1168
g2
S'A1048'
p1169
sg4
I388
sg5
S'Jae-wook Ahn'
p1170
ssI389
(dp1171
g2
S'A1168'
p1172
sg4
I389
sg5
S'Nehme, R.R.V.'
p1173
ssI390
(dp1174
g2
S'A1169'
p1175
sg4
I390
sg5
S'Glickman, L.T.'
p1176
ssI391
(dp1177
g2
S'A1164'
p1178
sg4
I391
sg5
S'Parekh, N.'
p1179
ssI392
(dp1180
g2
S'A1165'
p1181
sg4
I392
sg5
S'Singhal, K.'
p1182
ssI393
(dp1183
g2
S'A1166'
p1184
sg4
I393
sg5
S'Tyner, B.'
p1185
ssI394
(dp1186
g2
S'A1167'
p1187
sg4
I394
sg5
S'Cheng Zheng'
p1188
ssI395
(dp1189
g2
S'A1160'
p1190
sg4
I395
sg5
S'Moreland, K.'
p1191
ssI396
(dp1192
g2
S'A1161'
p1193
sg4
I396
sg5
S'Baumes, J.'
p1194
ssI397
(dp1195
g2
S'A1162'
p1196
sg4
I397
sg5
S'Geveci, B.'
p1197
ssI398
(dp1198
g2
S'A1163'
p1199
sg4
I398
sg5
S'Morent, D.'
p1200
ssI399
(dp1201
g2
S'A1249'
p1202
sg4
I399
sg5
S'Hubball, D.'
p1203
ssI400
(dp1204
g2
S'A631'
p1205
sg4
I400
sg5
S'Fiaux, P.'
p1206
ssI401
(dp1207
g2
S'A919'
p1208
sg4
I401
sg5
S'Dunsmuir, D.'
p1209
ssI402
(dp1210
g2
S'A918'
p1211
sg4
I402
sg5
S'Chen, V.'
p1212
ssI403
(dp1213
g2
S'A859'
p1214
sg4
I403
sg5
S'Stukes, F.'
p1215
ssI404
(dp1216
g2
S'A911'
p1217
sg4
I404
sg5
S'Kisilevich, S.'
p1218
ssI405
(dp1219
g2
S'A910'
p1220
sg4
I405
sg5
S'Abowd, G.'
p1221
ssI406
(dp1222
g2
S'A913'
p1223
sg4
I406
sg5
S'Johnson, A.'
p1224
ssI407
(dp1225
g2
S'A912'
p1226
sg4
I407
sg5
S'Yiwen Sun'
p1227
ssI408
(dp1228
g2
S'A915'
p1229
sg4
I408
sg5
S'Vadapalli, S.'
p1230
ssI409
(dp1231
g2
S'A914'
p1232
sg4
I409
sg5
S'Chau, D.'
p1233
ssI410
(dp1234
g2
S'A917'
p1235
sg4
I410
sg5
S'Kadivar, N.'
p1236
ssI411
(dp1237
g2
S'A916'
p1238
sg4
I411
sg5
S'Karlapalem, K.'
p1239
ssI412
(dp1240
g2
S'A589'
p1241
sg4
I412
sg5
S'Bash, C.'
p1242
ssI413
(dp1243
g2
S'A681'
p1244
sg4
I413
sg5
S'Dong Hyun Jeong'
p1245
ssI414
(dp1246
g2
S'A680'
p1247
sg4
I414
sg5
S'Yoshinaga, N.'
p1248
ssI415
(dp1249
g2
S'A768'
p1250
sg4
I415
sg5
S'Jackle, D.'
p1251
ssI416
(dp1252
g2
S'A682'
p1253
sg4
I416
sg5
S'Soo-Yeon Ji'
p1254
ssI417
(dp1255
g2
S'A685'
p1256
sg4
I417
sg5
S'Maule, B.'
p1257
ssI418
(dp1258
g2
S'A684'
p1259
sg4
I418
sg5
S'Bier, E.A.'
p1260
ssI419
(dp1261
g2
S'A687'
p1262
sg4
I419
sg5
S'Mistry, S.Y.'
p1263
ssI420
(dp1264
g2
S'A686'
p1265
sg4
I420
sg5
S'Kulkarni, I.'
p1266
ssI421
(dp1267
g2
S'A689'
p1268
sg4
I421
sg5
S'Gopi, M.'
p1269
ssI422
(dp1270
g2
S'A688'
p1271
sg4
I422
sg5
S'Cummings, B.'
p1272
ssI423
(dp1273
g2
S'A760'
p1274
sg4
I423
sg5
S'Dubois, J.'
p1275
ssI424
(dp1276
g2
S'A761'
p1277
sg4
I424
sg5
S'Melancon, G.'
p1278
ssI425
(dp1279
g2
S'A766'
p1280
sg4
I425
sg5
S'Striegel, A.'
p1281
ssI426
(dp1282
g2
S'A767'
p1283
sg4
I426
sg5
S'Zhong Su'
p1284
ssI427
(dp1285
g2
S'A764'
p1286
sg4
I427
sg5
S'Yuan He'
p1287
ssI428
(dp1288
g2
S'A765'
p1289
sg4
I428
sg5
S'Rui Li'
p1290
ssI429
(dp1291
g2
S'A46'
p1292
sg4
I429
sg5
S'Jaegul Choo'
p1293
ssI430
(dp1294
g2
S'A47'
p1295
sg4
I430
sg5
S'Xiaoyu Wang'
p1296
ssI431
(dp1297
g2
S'A44'
p1298
sg4
I431
sg5
S'Cho, I.'
p1299
ssI432
(dp1300
g2
S'A45'
p1301
sg4
I432
sg5
S'ElTayeby, O.'
p1302
ssI433
(dp1303
g2
S'A42'
p1304
sg4
I433
sg5
S'Westermann, R.'
p1305
ssI434
(dp1306
g2
S'A43'
p1307
sg4
I434
sg5
S'Wenwen Dou'
p1308
ssI435
(dp1309
g2
S'A40'
p1310
sg4
I435
sg5
S'Demir, I.'
p1311
ssI436
(dp1312
g2
S'A41'
p1313
sg4
I436
sg5
S'Kehrer, J.'
p1314
ssI437
(dp1315
g2
S'A865'
p1316
sg4
I437
sg5
S'Berger, W.'
p1317
ssI438
(dp1318
g2
S'A852'
p1319
sg4
I438
sg5
S'Trager, S.'
p1320
ssI439
(dp1321
g2
S'A48'
p1322
sg4
I439
sg5
S'Ribarsky, W.'
p1323
ssI440
(dp1324
g2
S'A49'
p1325
sg4
I440
sg5
S'Qingsong Liu'
p1326
ssI441
(dp1327
g2
S'A853'
p1328
sg4
I441
sg5
S'Wilkinson, M.H.F.'
p1329
ssI442
(dp1330
g2
S'A867'
p1331
sg4
I442
sg5
S'Kandula, S.'
p1332
ssI443
(dp1333
g2
S'A854'
p1334
sg4
I443
sg5
S'Roerdink, J.B.T.'
p1335
ssI444
(dp1336
g2
S'A1228'
p1337
sg4
I444
sg5
S'Stockinger, K.'
p1338
ssI445
(dp1339
g2
S'A423'
p1340
sg4
I445
sg5
S'Barlowe, S.'
p1341
ssI446
(dp1342
g2
S'A449'
p1343
sg4
I446
sg5
S'Jing Ma'
p1344
ssI447
(dp1345
g2
S'A829'
p1346
sg4
I447
sg5
S'Kilgore, R.M.'
p1347
ssI448
(dp1348
g2
S'A1227'
p1349
sg4
I448
sg5
S'Dart, E.'
p1350
ssI449
(dp1351
g2
S'A438'
p1352
sg4
I449
sg5
S'Haidong Chen'
p1353
ssI450
(dp1354
g2
S'A1246'
p1355
sg4
I450
sg5
S'Bederson, B.B.'
p1356
ssI451
(dp1357
g2
S'A968'
p1358
sg4
I451
sg5
S'Payne, J.'
p1359
ssI452
(dp1360
g2
S'A969'
p1361
sg4
I452
sg5
S'Steckman, M.'
p1362
ssI453
(dp1363
g2
S'A618'
p1364
sg4
I453
sg5
S'Siahbani, M.'
p1365
ssI454
(dp1366
g2
S'A619'
p1367
sg4
I454
sg5
S'Sarkar, A.'
p1368
ssI455
(dp1369
g2
S'A616'
p1370
sg4
I455
sg5
S'Skau, D.'
p1371
ssI456
(dp1372
g2
S'A617'
p1373
sg4
I456
sg5
S'Vadlapudi, R.'
p1374
ssI457
(dp1375
g2
S'A614'
p1376
sg4
I457
sg5
S'Heidemann, G.'
p1377
ssI458
(dp1378
g2
S'A967'
p1379
sg4
I458
sg5
S'Wright, B.'
p1380
ssI459
(dp1381
g2
S'A612'
p1382
sg4
I459
sg5
S'Netzel, R.'
p1383
ssI460
(dp1384
g2
S'A613'
p1385
sg4
I460
sg5
S'Hoferlin, M.'
p1386
ssI461
(dp1387
g2
S'A610'
p1388
sg4
I461
sg5
S'Silvello, G.'
p1389
ssI462
(dp1390
g2
S'A611'
p1391
sg4
I462
sg5
S'Hoferlin, B.'
p1392
ssI463
(dp1393
g2
S'A497'
p1394
sg4
I463
sg5
S'Zhiqiang Ma'
p1395
ssI464
(dp1396
g2
S'A38'
p1397
sg4
I464
sg5
S'Woodhull, G.'
p1398
ssI465
(dp1399
g2
S'A469'
p1400
sg4
I465
sg5
S'Schwalm, C.R.'
p1401
ssI466
(dp1402
g2
S'A468'
p1403
sg4
I466
sg5
S'Hargrove, W.'
p1404
ssI467
(dp1405
g2
S'A615'
p1406
sg4
I467
sg5
S'Kandogan, E.'
p1407
ssI468
(dp1408
g2
S'A465'
p1409
sg4
I468
sg5
S'Poco, J.'
p1410
ssI469
(dp1411
g2
S'A464'
p1412
sg4
I469
sg5
S'Rauber, A.'
p1413
ssI470
(dp1414
g2
S'A467'
p1415
sg4
I470
sg5
S'Yaxing Wei'
p1416
ssI471
(dp1417
g2
S'A466'
p1418
sg4
I471
sg5
S'Dasgupta, A.'
p1419
ssI472
(dp1420
g2
S'A461'
p1421
sg4
I472
sg5
S'Yuan, J.'
p1422
ssI473
(dp1423
g2
S'A460'
p1424
sg4
I473
sg5
S'Tangzhi Ye'
p1425
ssI474
(dp1426
g2
S'A463'
p1427
sg4
I474
sg5
S'Hanbury, A.'
p1428
ssI475
(dp1429
g2
S'A462'
p1430
sg4
I475
sg5
S'Qianliang Wu'
p1431
ssI476
(dp1432
g2
S'A886'
p1433
sg4
I476
sg5
S'Spretke, D.'
p1434
ssI477
(dp1435
g2
S'A111'
p1436
sg4
I477
sg5
S'Splechtna, R.'
p1437
ssI478
(dp1438
g2
S'A33'
p1439
sg4
I478
sg5
S'Qi Han'
p1440
ssI479
(dp1441
g2
S'A860'
p1442
sg4
I479
sg5
S'Hawkins, M.E.'
p1443
ssI480
(dp1444
g2
S'A31'
p1445
sg4
I480
sg5
S'Jian Chen'
p1446
ssI481
(dp1447
g2
S'A30'
p1448
sg4
I481
sg5
S'Sanyal, J.'
p1449
ssI482
(dp1450
g2
S'A37'
p1451
sg4
I482
sg5
S'Urbanek, S.'
p1452
ssI483
(dp1453
g2
S'A690'
p1454
sg4
I483
sg5
S'Lamagna, W.M.'
p1455
ssI484
(dp1456
g2
S'A35'
p1457
sg4
I484
sg5
S'North, S.C.'
p1458
ssI485
(dp1459
g2
S'A866'
p1460
sg4
I485
sg5
S'Jaeyeon Kihm'
p1461
ssI486
(dp1462
g2
S'A869'
p1463
sg4
I486
sg5
S'Nafari, M.'
p1464
ssI487
(dp1465
g2
S'A1226'
p1466
sg4
I487
sg5
S'Campbell, S.'
p1467
ssI488
(dp1468
g2
S'A1225'
p1469
sg4
I488
sg5
S'Bethel, E.W.'
p1470
ssI489
(dp1471
g2
S'A1224'
p1472
sg4
I489
sg5
S'Shahamat, L.'
p1473
ssI490
(dp1474
g2
S'A1223'
p1475
sg4
I490
sg5
S'Karlson, A.'
p1476
ssI491
(dp1477
g2
S'A1222'
p1478
sg4
I491
sg5
S'Fails, J.A.'
p1479
ssI492
(dp1480
g2
S'A1221'
p1481
sg4
I492
sg5
S'Sudjianto, A.'
p1482
ssI493
(dp1483
g2
S'A1220'
p1484
sg4
I493
sg5
S'Kern, D.'
p1485
ssI494
(dp1486
g2
S'A256'
p1487
sg4
I494
sg5
S'Lowe, T.'
p1488
ssI495
(dp1489
g2
S'A388'
p1490
sg4
I495
sg5
S'Muhlbacher, T.'
p1491
ssI496
(dp1492
g2
S'A389'
p1493
sg4
I496
sg5
S'Gratzl, S.'
p1494
ssI497
(dp1495
g2
S'A1037'
p1496
sg4
I497
sg5
S'Bai Wang'
p1497
ssI498
(dp1498
g2
S'A384'
p1499
sg4
I498
sg5
S'Hong Zhou'
p1500
ssI499
(dp1501
g2
S'A385'
p1502
sg4
I499
sg5
S'Bradel, L.'
p1503
ssI500
(dp1504
g2
S'A386'
p1505
sg4
I500
sg5
S'House, l.'
p1506
ssI501
(dp1507
g2
S'A387'
p1508
sg4
I501
sg5
S'Leman, S.'
p1509
ssI502
(dp1510
g2
S'A380'
p1511
sg4
I502
sg5
S'Oeltze-Jafra, S.'
p1512
ssI503
(dp1513
g2
S'A381'
p1514
sg4
I503
sg5
S'Volzke, H.'
p1515
ssI504
(dp1516
g2
S'A382'
p1517
sg4
I504
sg5
S'Stoffel, A.'
p1518
ssI505
(dp1519
g2
S'A383'
p1520
sg4
I505
sg5
S'Stoffel, F.'
p1521
ssI506
(dp1522
g2
S'A142'
p1523
sg4
I506
sg5
S'Sujin Jang'
p1524
ssI507
(dp1525
g2
S'A143'
p1526
sg4
I507
sg5
S'Elmqvist, N.'
p1527
ssI508
(dp1528
g2
S'A140'
p1529
sg4
I508
sg5
S'Andrienko, G.'
p1530
ssI509
(dp1531
g2
S'A141'
p1532
sg4
I509
sg5
S'Kerren, A.'
p1533
ssI510
(dp1534
g2
S'A146'
p1535
sg4
I510
sg5
S'Hamilton, P.'
p1536
ssI511
(dp1537
g2
S'A751'
p1538
sg4
I511
sg5
S'Eisemann, M.'
p1539
ssI512
(dp1540
g2
S'A144'
p1541
sg4
I512
sg5
S'Ramani, K.'
p1542
ssI513
(dp1543
g2
S'A145'
p1544
sg4
I513
sg5
S'Glueck, M.'
p1545
ssI514
(dp1546
g2
S'A263'
p1547
sg4
I514
sg5
S'Gstrein, E.'
p1548
ssI515
(dp1549
g2
S'A262'
p1550
sg4
I515
sg5
S'Gschwandtner, T.'
p1551
ssI516
(dp1552
g2
S'A261'
p1553
sg4
I516
sg5
S'Leite, R.A.'
p1554
ssI517
(dp1555
g2
S'A149'
p1556
sg4
I517
sg5
S'Khan, A.'
p1557
ssI518
(dp1558
g2
S'A267'
p1559
sg4
I518
sg5
S'Qiusheng Li'
p1560
ssI519
(dp1561
g2
S'A266'
p1562
sg4
I519
sg5
S'Jie Liangk'
p1563
ssI520
(dp1564
g2
S'A265'
p1565
sg4
I520
sg5
S'Youfeng hao'
p1566
ssI521
(dp1567
g2
S'A264'
p1568
sg4
I521
sg5
S'Kuntner, J.'
p1569
ssI522
(dp1570
g2
S'A1120'
p1571
sg4
I522
sg5
S'Tekusova, T.'
p1572
ssI523
(dp1573
g2
S'A1121'
p1574
sg4
I523
sg5
S'Last, M.'
p1575
ssI524
(dp1576
g2
S'A1089'
p1577
sg4
I524
sg5
S'Tianyi Zhang'
p1578
ssI525
(dp1579
g2
S'A1088'
p1580
sg4
I525
sg5
S'Nam, J.E.'
p1581
ssI526
(dp1582
g2
S'A1124'
p1583
sg4
I526
sg5
S'Yiwen Zhong'
p1584
ssI527
(dp1585
g2
S'A1125'
p1586
sg4
I527
sg5
S'Smith, T.'
p1587
ssI528
(dp1588
g2
S'A1126'
p1589
sg4
I528
sg5
S'Park, I.'
p1590
ssI529
(dp1591
g2
S'A1127'
p1592
sg4
I529
sg5
S'Weixia Huang'
p1593
ssI530
(dp1594
g2
S'A1083'
p1595
sg4
I530
sg5
S'Miklin, R.'
p1596
ssI531
(dp1597
g2
S'A1082'
p1598
sg4
I531
sg5
S'Dalton, J.'
p1599
ssI532
(dp1600
g2
S'A1081'
p1601
sg4
I532
sg5
S'Kuchy, L.'
p1602
ssI533
(dp1603
g2
S'A1080'
p1604
sg4
I533
sg5
S'Holland, B.'
p1605
ssI534
(dp1606
g2
S'A1087'
p1607
sg4
I534
sg5
S'Freiler, W.'
p1608
ssI535
(dp1609
g2
S'A1086'
p1610
sg4
I535
sg5
S'Beric, M.'
p1611
ssI536
(dp1612
g2
S'A1085'
p1613
sg4
I536
sg5
S'Konyha, Z.'
p1614
ssI537
(dp1615
g2
S'A1084'
p1616
sg4
I537
sg5
S'Lipic, T.'
p1617
ssI538
(dp1618
g2
S'A814'
p1619
sg4
I538
sg5
S'Garg, S.'
p1620
ssI539
(dp1621
g2
S'A815'
p1622
sg4
I539
sg5
S'Ramakrishnan, I.'
p1623
ssI540
(dp1624
g2
S'A544'
p1625
sg4
I540
sg5
S'Reddy, C.K.'
p1626
ssI541
(dp1627
g2
S'A817'
p1628
sg4
I541
sg5
S'Hanrahan, P.'
p1629
ssI542
(dp1630
g2
S'A542'
p1631
sg4
I542
sg5
S'Choudhury, S.'
p1632
ssI543
(dp1633
g2
S'A543'
p1634
sg4
I543
sg5
S'Changhyun Lee'
p1635
ssI544
(dp1636
g2
S'A812'
p1637
sg4
I544
sg5
S'Suma, E.'
p1638
ssI545
(dp1639
g2
S'A541'
p1640
sg4
I545
sg5
S'Rooney, C.'
p1641
ssI546
(dp1642
g2
S'A110'
p1643
sg4
I546
sg5
S'Scheuermann, G.'
p1644
ssI547
(dp1645
g2
S'A705'
p1646
sg4
I547
sg5
S'Szabo, Z.'
p1647
ssI548
(dp1648
g2
S'A818'
p1649
sg4
I548
sg5
S'DiPaola, S.'
p1650
ssI549
(dp1651
g2
S'A819'
p1652
sg4
I549
sg5
S'Isenberg, P.'
p1653
ssI550
(dp1654
g2
S'A548'
p1655
sg4
I550
sg5
S'Shadoan, R.'
p1656
ssI551
(dp1657
g2
S'A549'
p1658
sg4
I551
sg5
S'Weaver, C.'
p1659
ssI552
(dp1660
g2
S'A398'
p1661
sg4
I552
sg5
S'Konev, A.'
p1662
ssI553
(dp1663
g2
S'A1248'
p1664
sg4
I553
sg5
S'Heiser, J.'
p1665
ssI554
(dp1666
g2
S'A594'
p1667
sg4
I554
sg5
S'Harrison, L.'
p1668
ssI555
(dp1669
g2
S'A317'
p1670
sg4
I555
sg5
S'Koop, D.'
p1671
ssI556
(dp1672
g2
S'A316'
p1673
sg4
I556
sg5
S'Dietrich, C.'
p1674
ssI557
(dp1675
g2
S'A315'
p1676
sg4
I557
sg5
S'Ebert, D.S.'
p1677
ssI558
(dp1678
g2
S'A314'
p1679
sg4
I558
sg5
S'Chen, M.'
p1680
ssI559
(dp1681
g2
S'A313'
p1682
sg4
I559
sg5
S'Yun Jang'
p1683
ssI560
(dp1684
g2
S'A312'
p1685
sg4
I560
sg5
S'Malik, A.'
p1686
ssI561
(dp1687
g2
S'A311'
p1688
sg4
I561
sg5
S'Junghoon Chae'
p1689
ssI562
(dp1690
g2
S'A310'
p1691
sg4
I562
sg5
S'Yang Yang'
p1692
ssI563
(dp1693
g2
S'A351'
p1694
sg4
I563
sg5
S'Quan Lin'
p1695
ssI564
(dp1696
g2
S'A319'
p1697
sg4
I564
sg5
S'Yixian Zheng'
p1698
ssI565
(dp1699
g2
S'A318'
p1700
sg4
I565
sg5
S'Wenchao Wu'
p1701
ssI566
(dp1702
g2
S'A368'
p1703
sg4
I566
sg5
S'Sallaberry, A.'
p1704
ssI567
(dp1705
g2
S'A1146'
p1706
sg4
I567
sg5
S'Ha, D.'
p1707
ssI568
(dp1708
g2
S'A350'
p1709
sg4
I568
sg5
S'Zhao, H.'
p1710
ssI569
(dp1711
g2
S'A560'
p1712
sg4
I569
sg5
S'van de Wetering, H.'
p1713
ssI570
(dp1714
g2
S'A1147'
p1715
sg4
I570
sg5
S'Kim, M.'
p1716
ssI571
(dp1717
g2
S'A252'
p1718
sg4
I571
sg5
S'Weiskopf, D.'
p1719
ssI572
(dp1720
g2
S'A277'
p1721
sg4
I572
sg5
S'Filzmoser, P.'
p1722
ssI573
(dp1723
g2
S'A1154'
p1724
sg4
I573
sg5
S'Few, S.'
p1725
ssI574
(dp1726
g2
S'A1157'
p1727
sg4
I574
sg5
S'Greenfield, J.'
p1728
ssI575
(dp1729
g2
S'A1156'
p1730
sg4
I575
sg5
S'Wilson, A.'
p1731
ssI576
(dp1732
g2
S'A1018'
p1733
sg4
I576
sg5
S'Dadzie, A.-S.'
p1734
ssI577
(dp1735
g2
S'A1150'
p1736
sg4
I577
sg5
S'Ho, K.'
p1737
ssI578
(dp1738
g2
S'A1153'
p1739
sg4
I578
sg5
S'Eremeeva, M.E.'
p1740
ssI579
(dp1741
g2
S'A1152'
p1742
sg4
I579
sg5
S'Dasch, G.A.'
p1743
ssI580
(dp1744
g2
S'A1014'
p1745
sg4
I580
sg5
S'Liebig, T.'
p1746
ssI581
(dp1747
g2
S'A1015'
p1748
sg4
I581
sg5
S'Noppens, O.'
p1749
ssI582
(dp1750
g2
S'A1016'
p1751
sg4
I582
sg5
S'von Henke, F.'
p1752
ssI583
(dp1753
g2
S'A1017'
p1754
sg4
I583
sg5
S'Gorner, M.'
p1755
ssI584
(dp1756
g2
S'A1010'
p1757
sg4
I584
sg5
S'Jones, C.'
p1758
ssI585
(dp1759
g2
S'A1158'
p1760
sg4
I585
sg5
S'Stanton, E.'
p1761
ssI586
(dp1762
g2
S'A1012'
p1763
sg4
I586
sg5
S'Shearer, J.'
p1764
ssI587
(dp1765
g2
S'A1013'
p1766
sg4
I587
sg5
S'Tikhonova, A.'
p1767
ssI588
(dp1768
g2
S'A82'
p1769
sg4
I588
sg5
S'Quan Li'
p1770
ssI589
(dp1771
g2
S'A83'
p1772
sg4
I589
sg5
S'Peng Xu'
p1773
ssI590
(dp1774
g2
S'A80'
p1775
sg4
I590
sg5
S'Haeyong Chung'
p1776
ssI591
(dp1777
g2
S'A81'
p1778
sg4
I591
sg5
S'Joshi, S.H.'
p1779
ssI592
(dp1780
g2
S'A86'
p1781
sg4
I592
sg5
S'Si Li'
p1782
ssI593
(dp1783
g2
S'A87'
p1784
sg4
I593
sg5
S'Fei Wu'
p1785
ssI594
(dp1786
g2
S'A84'
p1787
sg4
I594
sg5
S'Haoling Dong'
p1788
ssI595
(dp1789
g2
S'A85'
p1790
sg4
I595
sg5
S'Siliang Tang'
p1791
ssI596
(dp1792
g2
S'A1258'
p1793
sg4
I596
sg5
S'Fyfe, D.'
p1794
ssI597
(dp1795
g2
S'A88'
p1796
sg4
I597
sg5
S'Yueting Zhuang'
p1797
ssI598
(dp1798
g2
S'A89'
p1799
sg4
I598
sg5
S'Bryan, C.'
p1800
ssI599
(dp1801
g2
S'A802'
p1802
sg4
I599
sg5
S'Guy, I.'
p1803
ssI600
(dp1804
g2
S'A662'
p1805
sg4
I600
sg5
S'Leishi Zhang'
p1806
ssI601
(dp1807
g2
S'A1242'
p1808
sg4
I601
sg5
S'Xuan Zhong'
p1809
ssI602
(dp1810
g2
S'A660'
p1811
sg4
I602
sg5
S'Cuixia Ma'
p1812
ssI603
(dp1813
g2
S'A920'
p1814
sg4
I603
sg5
S'Lee, E.'
p1815
ssI604
(dp1816
g2
S'A921'
p1817
sg4
I604
sg5
S'Qian, C.'
p1818
ssI605
(dp1819
g2
S'A922'
p1820
sg4
I605
sg5
S'Woodbury, R.'
p1821
ssI606
(dp1822
g2
S'A923'
p1823
sg4
I606
sg5
S'Schneidewind, J.'
p1824
ssI607
(dp1825
g2
S'A924'
p1826
sg4
I607
sg5
S'Muller-Birn, C.'
p1827
ssI608
(dp1828
g2
S'A925'
p1829
sg4
I608
sg5
S'Birn, L.'
p1830
ssI609
(dp1831
g2
S'A926'
p1832
sg4
I609
sg5
S'Shrinivasan, Y.B.'
p1833
ssI610
(dp1834
g2
S'A927'
p1835
sg4
I610
sg5
S'Rose, S.'
p1836
ssI611
(dp1837
g2
S'A928'
p1838
sg4
I611
sg5
S'Butner, S.'
p1839
ssI612
(dp1840
g2
S'A929'
p1841
sg4
I612
sg5
S'Cowley, W.'
p1842
ssI613
(dp1843
g2
S'A1057'
p1844
sg4
I613
sg5
S'Tat, A.'
p1845
ssI614
(dp1846
g2
S'A269'
p1847
sg4
I614
sg5
S'Yadong Wu'
p1848
ssI615
(dp1849
g2
S'A268'
p1850
sg4
I615
sg5
S'Haiyang Wang'
p1851
ssI616
(dp1852
g2
S'A1148'
p1853
sg4
I616
sg5
S'Wade, A.'
p1854
ssI617
(dp1855
g2
S'A1149'
p1856
sg4
I617
sg5
S'Chao, W.'
p1857
ssI618
(dp1858
g2
S'A147'
p1859
sg4
I618
sg5
S'Chevalier, F.'
p1860
ssI619
(dp1861
g2
S'A1170'
p1862
sg4
I619
sg5
S'Ghoniem, M.'
p1863
ssI620
(dp1864
g2
S'A707'
p1865
sg4
I620
sg5
S'ap Cenydd, L.'
p1866
ssI621
(dp1867
g2
S'A823'
p1868
sg4
I621
sg5
S'Czerwinski, M.'
p1869
ssI622
(dp1870
g2
S'A148'
p1871
sg4
I622
sg5
S'Breslav, S.'
p1872
ssI623
(dp1873
g2
S'A991'
p1874
sg4
I623
sg5
S'Sicre, R.'
p1875
ssI624
(dp1876
g2
S'A260'
p1877
sg4
I624
sg5
S'Magnor, M.'
p1878
ssI625
(dp1879
g2
S'A79'
p1880
sg4
I625
sg5
S'Simard, P.'
p1881
ssI626
(dp1882
g2
S'A990'
p1883
sg4
I626
sg5
S'DuBois, J.'
p1884
ssI627
(dp1885
g2
S'A77'
p1886
sg4
I627
sg5
S'Drucker, S.'
p1887
ssI628
(dp1888
g2
S'A76'
p1889
sg4
I628
sg5
S'Bongshin Lee'
p1890
ssI629
(dp1891
g2
S'A75'
p1892
sg4
I629
sg5
S'Amershi, S.'
p1893
ssI630
(dp1894
g2
S'A74'
p1895
sg4
I630
sg5
S'Brooks, M.'
p1896
ssI631
(dp1897
g2
S'A73'
p1898
sg4
I631
sg5
S'Maciejewski, R.'
p1899
ssI632
(dp1900
g2
S'A72'
p1901
sg4
I632
sg5
S'Corman, S.R.'
p1902
ssI633
(dp1903
g2
S'A71'
p1904
sg4
I633
sg5
S'Montgomery, D.'
p1905
ssI634
(dp1906
g2
S'A70'
p1907
sg4
I634
sg5
S'Davulcu, H.'
p1908
ssI635
(dp1909
g2
S'A645'
p1910
sg4
I635
sg5
S'Chakraborty, P.'
p1911
ssI636
(dp1912
g2
S'A644'
p1913
sg4
I636
sg5
S'Butler, P.'
p1914
ssI637
(dp1915
g2
S'A647'
p1916
sg4
I637
sg5
S'Olislagers, F.'
p1917
ssI638
(dp1918
g2
S'A646'
p1919
sg4
I638
sg5
S'Ramakrishan, N.'
p1920
ssI639
(dp1921
g2
S'A641'
p1922
sg4
I639
sg5
S'Maas, F.'
p1923
ssI640
(dp1924
g2
S'A640'
p1925
sg4
I640
sg5
S'Tatu, A.'
p1926
ssI641
(dp1927
g2
S'A643'
p1928
sg4
I641
sg5
S'Seidl, T.'
p1929
ssI642
(dp1930
g2
S'A642'
p1931
sg4
I642
sg5
S'Farber, I.'
p1932
ssI643
(dp1933
g2
S'A726'
p1934
sg4
I643
sg5
S'Sen Xu'
p1935
ssI644
(dp1936
g2
S'A727'
p1937
sg4
I644
sg5
S'Bannach, A.'
p1938
ssI645
(dp1939
g2
S'A724'
p1940
sg4
I645
sg5
S'Singh, L.'
p1941
ssI646
(dp1942
g2
S'A725'
p1943
sg4
I646
sg5
S'Giacobe, N.A.'
p1944
ssI647
(dp1945
g2
S'A722'
p1946
sg4
I647
sg5
S'Namata, G.'
p1947
ssI648
(dp1948
g2
S'A648'
p1949
sg4
I648
sg5
S'Pohl, M.'
p1950
ssI649
(dp1951
g2
S'A720'
p1952
sg4
I649
sg5
S'Sharara, H.'
p1953
ssI650
(dp1954
g2
S'A721'
p1955
sg4
I650
sg5
S'Sopan, A.'
p1956
ssI651
(dp1957
g2
S'A106'
p1958
sg4
I651
sg5
S'Xiaolong Zhang'
p1959
ssI652
(dp1960
g2
S'A107'
p1961
sg4
I652
sg5
S'Jiawan Zhang'
p1962
ssI653
(dp1963
g2
S'A456'
p1964
sg4
I653
sg5
S'Dobslaw, H.'
p1965
ssI654
(dp1966
g2
S'A105'
p1967
sg4
I654
sg5
S'Zuchao Wang'
p1968
ssI655
(dp1969
g2
S'A450'
p1970
sg4
I655
sg5
S'Yahui Zhao'
p1971
ssI656
(dp1972
g2
S'A451'
p1973
sg4
I656
sg5
S'Binghan Xu'
p1974
ssI657
(dp1975
g2
S'A452'
p1976
sg4
I657
sg5
S'Liting Sun'
p1977
ssI658
(dp1978
g2
S'A101'
p1979
sg4
I658
sg5
S'Xiaoru Yuan'
p1980
ssI659
(dp1981
g2
S'A515'
p1982
sg4
I659
sg5
S'Xinran Hu'
p1983
ssI660
(dp1984
g2
S'A514'
p1985
sg4
I660
sg5
S'Puttmann, E.'
p1986
ssI661
(dp1987
g2
S'A517'
p1988
sg4
I661
sg5
S'House, L.'
p1989
ssI662
(dp1990
g2
S'A516'
p1991
sg4
I662
sg5
S'Maiti, D.'
p1992
ssI663
(dp1993
g2
S'A458'
p1994
sg4
I663
sg5
S'Stehno, B.'
p1995
ssI664
(dp1996
g2
S'A459'
p1997
sg4
I664
sg5
S'Purgathofer, W.'
p1998
ssI665
(dp1999
g2
S'A108'
p2000
sg4
I665
sg5
S'Janicke, S.'
p2001
ssI666
(dp2002
g2
S'A109'
p2003
sg4
I666
sg5
S'Focht, J.'
p2004
ssI667
(dp2005
g2
S'A1123'
p2006
sg4
I667
sg5
S'Chen Yu'
p2007
ssI668
(dp2008
g2
S'A391'
p2009
sg4
I668
sg5
S'Kai Yan'
p2010
ssI669
(dp2011
g2
S'A1031'
p2012
sg4
I669
sg5
S'Armstrong, R.'
p2013
ssI670
(dp2014
g2
S'A1259'
p2015
sg4
I670
sg5
S'Holdsworth, D.'
p2016
ssI671
(dp2017
g2
S'A1114'
p2018
sg4
I671
sg5
S'Quimby, R.'
p2019
ssI672
(dp2020
g2
S'A421'
p2021
sg4
I672
sg5
S'Xinxin Huang'
p2022
ssI673
(dp2023
g2
S'A420'
p2024
sg4
I673
sg5
S'Cong Xie'
p2025
ssI674
(dp2026
g2
S'A588'
p2027
sg4
I674
sg5
S'Dayal, U.'
p2028
ssI675
(dp2029
g2
S'A422'
p2030
sg4
I675
sg5
S'Yueqi Hu'
p2031
ssI676
(dp2032
g2
S'A425'
p2033
sg4
I676
sg5
S'Muller, A.'
p2034
ssI677
(dp2035
g2
S'A424'
p2036
sg4
I677
sg5
S'Worner, M.'
p2037
ssI678
(dp2038
g2
S'A992'
p2039
sg4
I678
sg5
S'Brulin, M.'
p2040
ssI679
(dp2041
g2
S'A426'
p2042
sg4
I679
sg5
S'Jieqiong Zhao'
p2043
ssI680
(dp2044
g2
S'A850'
p2045
sg4
I680
sg5
S'Ferdosi, B.J.'
p2046
ssI681
(dp2047
g2
S'A851'
p2048
sg4
I681
sg5
S'Buddelmeijer, H.'
p2049
ssI682
(dp2050
g2
S'A580'
p2051
sg4
I682
sg5
S'Paepcke, A.'
p2052
ssI683
(dp2053
g2
S'A581'
p2054
sg4
I683
sg5
S'Hellerstein, J.M.'
p2055
ssI684
(dp2056
g2
S'A586'
p2057
sg4
I684
sg5
S'Marwah, M.'
p2058
ssI685
(dp2059
g2
S'A587'
p2060
sg4
I685
sg5
S'Mittelstadt, S.'
p2061
ssI686
(dp2062
g2
S'A856'
p2063
sg4
I686
sg5
S'Correa, C.'
p2064
ssI687
(dp2065
g2
S'A857'
p2066
sg4
I687
sg5
S'Tomaszewski, B.'
p2067
ssI688
(dp2068
g2
S'A1254'
p2069
sg4
I688
sg5
S'Sifer, M.'
p2070
ssI689
(dp2071
g2
S'A1051'
p2072
sg4
I689
sg5
S'Oates, B.'
p2073
ssI690
(dp2074
g2
S'A579'
p2075
sg4
I690
sg5
S'Kandel, S.'
p2076
ssI691
(dp2077
g2
S'A212'
p2078
sg4
I691
sg5
S'Xiaoke Huang'
p2079
ssI692
(dp2080
g2
S'A213'
p2081
sg4
I692
sg5
S'Ye Zhao'
p2082
ssI693
(dp2083
g2
S'A359'
p2084
sg4
I693
sg5
S'Bowen Yu'
p2085
ssI694
(dp2086
g2
S'A578'
p2087
sg4
I694
sg5
S'Brodley, C.E.'
p2088
ssI695
(dp2089
g2
S'A216'
p2090
sg4
I695
sg5
S'Chao Ma'
p2091
ssI696
(dp2092
g2
S'A217'
p2093
sg4
I696
sg5
S'Xinyue Ye'
p2094
ssI697
(dp2095
g2
S'A214'
p2096
sg4
I697
sg5
S'Jing Yang'
p2097
ssI698
(dp2098
g2
S'A215'
p2099
sg4
I698
sg5
S'Chong Zhang'
p2100
ssI699
(dp2101
g2
S'A353'
p2102
sg4
I699
sg5
S'Chang, R.'
p2103
ssI700
(dp2104
g2
S'A352'
p2105
sg4
I700
sg5
S'Souvenir, R.'
p2106
ssI701
(dp2107
g2
S'A218'
p2108
sg4
I701
sg5
S'Yi-Chih Tsai'
p2109
ssI702
(dp2110
g2
S'A219'
p2111
sg4
I702
sg5
S'Liang-Chi Hsieh'
p2112
ssI703
(dp2113
g2
S'A357'
p2114
sg4
I703
sg5
S'Bart, E.'
p2115
ssI704
(dp2116
g2
S'A356'
p2117
sg4
I704
sg5
S'Ahern, S.'
p2118
ssI705
(dp2119
g2
S'A355'
p2120
sg4
I705
sg5
S'Damico, K.'
p2121
ssI706
(dp2122
g2
S'A354'
p2123
sg4
I706
sg5
S'Isaacs, E.'
p2124
ssI707
(dp2125
g2
S'A1050'
p2126
sg4
I707
sg5
S'Bouvier, D.J.'
p2127
ssI708
(dp2128
g2
S'A546'
p2129
sg4
I708
sg5
S'Dajian Liu'
p2130
ssI709
(dp2131
g2
S'A1052'
p2132
sg4
I709
sg5
S'Simeone, A.L.'
p2133
ssI710
(dp2134
g2
S'A1053'
p2135
sg4
I710
sg5
S'Paolo, B.'
p2136
ssI711
(dp2137
g2
S'A1054'
p2138
sg4
I711
sg5
S'Pokharkar, S.'
p2139
ssI712
(dp2140
g2
S'A1055'
p2141
sg4
I712
sg5
S'Tin Kam Ho'
p2142
ssI713
(dp2143
g2
S'A1056'
p2144
sg4
I713
sg5
S'Chien, L.'
p2145
ssI714
(dp2146
g2
S'A547'
p2147
sg4
I714
sg5
S'Ye Yuan'
p2148
ssI715
(dp2149
g2
S'A1058'
p2150
sg4
I715
sg5
S'Proulx, P.'
p2151
ssI716
(dp2152
g2
S'A1059'
p2153
sg4
I716
sg5
S'Khamisa, A.'
p2154
ssI717
(dp2155
g2
S'A816'
p2156
sg4
I717
sg5
S'Talbot, J.'
p2157
ssI718
(dp2158
g2
S'A1119'
p2159
sg4
I718
sg5
S'Meyer, J.'
p2160
ssI719
(dp2161
g2
S'A1118'
p2162
sg4
I719
sg5
S'Gerhardt, F.'
p2163
ssI720
(dp2164
g2
S'A545'
p2165
sg4
I720
sg5
S'Kai Kang'
p2166
ssI721
(dp2167
g2
S'A1111'
p2168
sg4
I721
sg5
S'Poon, S.'
p2169
ssI722
(dp2170
g2
S'A1110'
p2171
sg4
I722
sg5
S'Aragon, C.R.'
p2172
ssI723
(dp2173
g2
S'A1113'
p2174
sg4
I723
sg5
S'Thomas, R.C.'
p2175
ssI724
(dp2176
g2
S'A1112'
p2177
sg4
I724
sg5
S'Aldering, G.S.'
p2178
ssI725
(dp2179
g2
S'A1115'
p2180
sg4
I725
sg5
S'Laskowski, S.'
p2181
ssI726
(dp2182
g2
S'A571'
p2183
sg4
I726
sg5
S'Benedik, R.'
p2184
ssI727
(dp2185
g2
S'A1117'
p2186
sg4
I727
sg5
S'Xinlei Zhao'
p2187
ssI728
(dp2188
g2
S'A811'
p2189
sg4
I728
sg5
S'Sarvghad, A.'
p2190
ssI729
(dp2191
g2
S'A1214'
p2192
sg4
I729
sg5
S'Seok-Hee Hong'
p2193
ssI730
(dp2194
g2
S'A570'
p2195
sg4
I730
sg5
S'Buchetics, M.'
p2196
ssI731
(dp2197
g2
S'A537'
p2198
sg4
I731
sg5
S'Bown, R.'
p2199
ssI732
(dp2200
g2
S'A540'
p2201
sg4
I732
sg5
S'Kodagoda, N.'
p2202
ssI733
(dp2203
g2
S'A932'
p2204
sg4
I733
sg5
S'Allen, D.'
p2205
ssI734
(dp2206
g2
S'A813'
p2207
sg4
I734
sg5
S'Ray, W.C.'
p2208
ssI735
(dp2209
g2
S'A562'
p2210
sg4
I735
sg5
S'Silver, D.'
p2211
ssI736
(dp2212
g2
S'A1179'
p2213
sg4
I736
sg5
S'Russell, D.'
p2214
ssI737
(dp2215
g2
S'A209'
p2216
sg4
I737
sg5
S'Szigeti, S.'
p2217
ssI738
(dp2218
g2
S'A112'
p2219
sg4
I738
sg5
S'Gracanin, D.'
p2220
ssI739
(dp2221
g2
S'A102'
p2222
sg4
I739
sg5
S'Zhenhuang Wang'
p2223
ssI740
(dp2224
g2
S'A536'
p2225
sg4
I740
sg5
S'Parry, M.L.'
p2226
ssI741
(dp2227
g2
S'A934'
p2228
sg4
I741
sg5
S'Huber, D.'
p2229
ssI742
(dp2230
g2
S'A1025'
p2231
sg4
I742
sg5
S'Kumar, A.'
p2232
ssI743
(dp2233
g2
S'A1024'
p2234
sg4
I743
sg5
S'Clement, T.'
p2235
ssI744
(dp2236
g2
S'A1027'
p2237
sg4
I744
sg5
S'Matzen, L.E.'
p2238
ssI745
(dp2239
g2
S'A1026'
p2240
sg4
I745
sg5
S'Dornburg, C.C.'
p2241
ssI746
(dp2242
g2
S'A1021'
p2243
sg4
I746
sg5
S'Mountain, D.'
p2244
ssI747
(dp2245
g2
S'A1020'
p2246
sg4
I747
sg5
S'Khalili-Shavarini, N.'
p2247
ssI748
(dp2248
g2
S'A1023'
p2249
sg4
I748
sg5
S'Vuillemot, R.'
p2250
ssI749
(dp2251
g2
S'A1022'
p2252
sg4
I749
sg5
S'Erdos, D.'
p2253
ssI750
(dp2254
g2
S'A582'
p2255
sg4
I750
sg5
S'Heer, J.'
p2256
ssI751
(dp2257
g2
S'A828'
p2258
sg4
I751
sg5
S'Godwin, J.A.'
p2259
ssI752
(dp2260
g2
S'A1029'
p2261
sg4
I752
sg5
S'McNamara, L.A.'
p2262
ssI753
(dp2263
g2
S'A1028'
p2264
sg4
I753
sg5
S'Bauer, T.L.'
p2265
ssI754
(dp2266
g2
S'A103'
p2267
sg4
I754
sg5
S'Cong Guo'
p2268
ssI755
(dp2269
g2
S'A585'
p2270
sg4
I755
sg5
S'Hao, M.C.'
p2271
ssI756
(dp2272
g2
S'A535'
p2273
sg4
I756
sg5
S'Chung, D.H.S.'
p2274
ssI757
(dp2275
g2
S'A1205'
p2276
sg4
I757
sg5
S'Larson, J.'
p2277
ssI758
(dp2278
g2
S'A678'
p2279
sg4
I758
sg5
S'Cottam, J.A.'
p2280
ssI759
(dp2281
g2
S'A679'
p2282
sg4
I759
sg5
S'Lumsdaine, A.'
p2283
ssI760
(dp2284
g2
S'A674'
p2285
sg4
I760
sg5
S'Bustos, B.'
p2286
ssI761
(dp2287
g2
S'A675'
p2288
sg4
I761
sg5
S'Anand, A.'
p2289
ssI762
(dp2290
g2
S'A676'
p2291
sg4
I762
sg5
S'Goodwin, S.'
p2292
ssI763
(dp2293
g2
S'A677'
p2294
sg4
I763
sg5
S'Kamijo, T.'
p2295
ssI764
(dp2296
g2
S'A670'
p2297
sg4
I764
sg5
S'Sundaresan, N.'
p2298
ssI765
(dp2299
g2
S'A671'
p2300
sg4
I765
sg5
S'Sharalieva, L.'
p2301
ssI766
(dp2302
g2
S'A672'
p2303
sg4
I766
sg5
S'Wanner, F.'
p2304
ssI767
(dp2305
g2
S'A673'
p2306
sg4
I767
sg5
S'Ruppert, T.'
p2307
ssI768
(dp2308
g2
S'A970'
p2309
sg4
I768
sg5
S'Stevson, S.'
p2310
ssI769
(dp2311
g2
S'A583'
p2312
sg4
I769
sg5
S'Youn-ah Kang'
p2313
ssI770
(dp2314
g2
S'A100'
p2315
sg4
I770
sg5
S'Siming Chen'
p2316
ssI771
(dp2317
g2
S'A534'
p2318
sg4
I771
sg5
S'Legg, P.A.'
p2319
ssI772
(dp2320
g2
S'A831'
p2321
sg4
I772
sg5
S'Guangliang Chen'
p2322
ssI773
(dp2323
g2
S'A1204'
p2324
sg4
I773
sg5
S'McLean, J.'
p2325
ssI774
(dp2326
g2
S'A939'
p2327
sg4
I774
sg5
S'Astrom, T.'
p2328
ssI775
(dp2329
g2
S'A609'
p2330
sg4
I775
sg5
S'Santucci, G.'
p2331
ssI776
(dp2332
g2
S'A608'
p2333
sg4
I776
sg5
S'Granato, G.'
p2334
ssI777
(dp2335
g2
S'A979'
p2336
sg4
I777
sg5
S'Fink, G.A.'
p2337
ssI778
(dp2338
g2
S'A978'
p2339
sg4
I778
sg5
S'Guozhong Dai'
p2340
ssI779
(dp2341
g2
S'A601'
p2342
sg4
I779
sg5
S'Daniels, J.'
p2343
ssI780
(dp2344
g2
S'A976'
p2345
sg4
I780
sg5
S'Feng Tian'
p2346
ssI781
(dp2347
g2
S'A603'
p2348
sg4
I781
sg5
S'Sousa, M.C.'
p2349
ssI782
(dp2350
g2
S'A602'
p2351
sg4
I782
sg5
S'Joia, P.'
p2352
ssI783
(dp2353
g2
S'A605'
p2354
sg4
I783
sg5
S'Schwabish, J.A.'
p2355
ssI784
(dp2356
g2
S'A972'
p2357
sg4
I784
sg5
S'Wattenberg, M.'
p2358
ssI785
(dp2359
g2
S'A971'
p2360
sg4
I785
sg5
S'Viegas, F.B.'
p2361
ssI786
(dp2362
g2
S'A606'
p2363
sg4
I786
sg5
S'Angelini, M.'
p2364
ssI787
(dp2365
g2
S'A418'
p2366
sg4
I787
sg5
S'Wongsuphasawat, K.'
p2367
ssI788
(dp2368
g2
S'A1212'
p2369
sg4
I788
sg5
S'Ahmed, A.'
p2370
ssI789
(dp2371
g2
S'A1213'
p2372
sg4
I789
sg5
S'Xiaoyan Fu'
p2373
ssI790
(dp2374
g2
S'A410'
p2375
sg4
I790
sg5
S'Xiting Wang'
p2376
ssI791
(dp2377
g2
S'A411'
p2378
sg4
I791
sg5
S'Jianfei Chen'
p2379
ssI792
(dp2380
g2
S'A412'
p2381
sg4
I792
sg5
S'Jun Zhu'
p2382
ssI793
(dp2383
g2
S'A413'
p2384
sg4
I793
sg5
S'Baining Guo'
p2385
ssI794
(dp2386
g2
S'A414'
p2387
sg4
I794
sg5
S'Zahlka, J.'
p2388
ssI795
(dp2389
g2
S'A1210'
p2390
sg4
I795
sg5
S'Brandes, U.'
p2391
ssI796
(dp2392
g2
S'A416'
p2393
sg4
I796
sg5
S'Tuan Nhon Dang'
p2394
ssI797
(dp2395
g2
S'A417'
p2396
sg4
I797
sg5
S'Wilkinson, L.'
p2397
ssI798
(dp2398
g2
S'A788'
p2399
sg4
I798
sg5
S'Huber, S.'
p2400
ssI799
(dp2401
g2
S'A789'
p2402
sg4
I799
sg5
S'Lindemeier, T.'
p2403
ssI800
(dp2404
g2
S'A1211'
p2405
sg4
I800
sg5
S'Lerner, J.'
p2406
ssI801
(dp2407
g2
S'A824'
p2408
sg4
I801
sg5
S'Zicheng Liao'
p2409
ssI802
(dp2410
g2
S'A780'
p2411
sg4
I802
sg5
S'Buck-Coleman, A.'
p2412
ssI803
(dp2413
g2
S'A1216'
p2414
sg4
I803
sg5
S'Bartling, U.'
p2415
ssI804
(dp2416
g2
S'A782'
p2417
sg4
I804
sg5
S'Yuan Gao'
p2418
ssI805
(dp2419
g2
S'A783'
p2420
sg4
I805
sg5
S'Lu Lu'
p2421
ssI806
(dp2422
g2
S'A784'
p2423
sg4
I806
sg5
S'Siyuan Liu'
p2424
ssI807
(dp2425
g2
S'A785'
p2426
sg4
I807
sg5
S'Ni, L.M.'
p2427
ssI808
(dp2428
g2
S'A786'
p2429
sg4
I808
sg5
S'Dillingham, I.'
p2430
ssI809
(dp2431
g2
S'A1217'
p2432
sg4
I809
sg5
S'SungYe Kim'
p2433
ssI810
(dp2434
g2
S'A20'
p2435
sg4
I810
sg5
S'Xizhou Zhu'
p2436
ssI811
(dp2437
g2
S'A21'
p2438
sg4
I811
sg5
S'Qinying Liao'
p2439
ssI812
(dp2440
g2
S'A22'
p2441
sg4
I812
sg5
S'Furu Wei'
p2442
ssI813
(dp2443
g2
S'A23'
p2444
sg4
I813
sg5
S'Shimei Pan'
p2445
ssI814
(dp2446
g2
S'A24'
p2447
sg4
I814
sg5
S'Maoyuan Sun'
p2448
ssI815
(dp2449
g2
S'A25'
p2450
sg4
I815
sg5
S'Peng Mi'
p2451
ssI816
(dp2452
g2
S'A26'
p2453
sg4
I816
sg5
S'North, C.'
p2454
ssI817
(dp2455
g2
S'A27'
p2456
sg4
I817
sg5
S'Ramakrishnan, N.'
p2457
ssI818
(dp2458
g2
S'A894'
p2459
sg4
I818
sg5
S'Harding, S.'
p2460
ssI819
(dp2461
g2
S'A1231'
p2462
sg4
I819
sg5
S'Bodnar, A.'
p2463
ssI820
(dp2464
g2
S'A896'
p2465
sg4
I820
sg5
S'Devillers, R.'
p2466
ssI821
(dp2467
g2
S'A1215'
p2468
sg4
I821
sg5
S'Quan Hoang Nguyen'
p2469
ssI822
(dp2470
g2
S'A1234'
p2471
sg4
I822
sg5
S'Bilgic, M.'
p2472
ssI823
(dp2473
g2
S'A1235'
p2474
sg4
I823
sg5
S'Licamele, L.'
p2475
ssI824
(dp2476
g2
S'A1236'
p2477
sg4
I824
sg5
S'Xie Zaixian'
p2478
ssI825
(dp2479
g2
S'A893'
p2480
sg4
I825
sg5
S'Wilson, G.'
p2481
ssI826
(dp2482
g2
S'A775'
p2483
sg4
I826
sg5
S'Zhang, X.'
p2484
ssI827
(dp2485
g2
S'A774'
p2486
sg4
I827
sg5
S'Mitra, P.'
p2487
ssI828
(dp2488
g2
S'A777'
p2489
sg4
I828
sg5
S'Yang Chen'
p2490
ssI829
(dp2491
g2
S'A776'
p2492
sg4
I829
sg5
S'Blanford, J.'
p2493
ssI830
(dp2494
g2
S'A771'
p2495
sg4
I830
sg5
S'Robinson, A.'
p2496
ssI831
(dp2497
g2
S'A770'
p2498
sg4
I831
sg5
S'Jaiswal, A.R.'
p2499
ssI832
(dp2500
g2
S'A773'
p2501
sg4
I832
sg5
S'Savelyev, A.'
p2502
ssI833
(dp2503
g2
S'A772'
p2504
sg4
I833
sg5
S'Pezanowski, S.'
p2505
ssI834
(dp2506
g2
S'A531'
p2507
sg4
I834
sg5
S'Plaisant, C.'
p2508
ssI835
(dp2509
g2
S'A429'
p2510
sg4
I835
sg5
S'Kne, L.'
p2511
ssI836
(dp2512
g2
S'A822'
p2513
sg4
I836
sg5
S'Inkpen, K.'
p2514
ssI837
(dp2515
g2
S'A779'
p2516
sg4
I837
sg5
S'Gomez, J.A.G.'
p2517
ssI838
(dp2518
g2
S'A778'
p2519
sg4
I838
sg5
S'Alsakran, J.'
p2520
ssI839
(dp2521
g2
S'A524'
p2522
sg4
I839
sg5
S'Leung, R.'
p2523
ssI840
(dp2524
g2
S'A257'
p2525
sg4
I840
sg5
S'Forster, E.-C.'
p2526
ssI841
(dp2527
g2
S'A254'
p2528
sg4
I841
sg5
S'Chufan Lai'
p2529
ssI842
(dp2530
g2
S'A255'
p2531
sg4
I842
sg5
S'Ye Tangzhi'
p2532
ssI843
(dp2533
g2
S'A520'
p2534
sg4
I843
sg5
S'Barrett, L.'
p2535
ssI844
(dp2536
g2
S'A253'
p2537
sg4
I844
sg5
S'Min Lu'
p2538
ssI845
(dp2539
g2
S'A522'
p2540
sg4
I845
sg5
S'Henzi, P.'
p2541
ssI846
(dp2542
g2
S'A523'
p2543
sg4
I846
sg5
S'Hajizadeh, A.H.'
p2544
ssI847
(dp2545
g2
S'A397'
p2546
sg4
I847
sg5
S'Stolper, C.D.'
p2547
ssI848
(dp2548
g2
S'A396'
p2549
sg4
I848
sg5
S'McCullough, S.'
p2550
ssI849
(dp2551
g2
S'A395'
p2552
sg4
I849
sg5
S'Towers, S.'
p2553
ssI850
(dp2554
g2
S'A394'
p2555
sg4
I850
sg5
S'Zhou, M.X.'
p2556
ssI851
(dp2557
g2
S'A393'
p2558
sg4
I851
sg5
S'Liang Gou'
p2559
ssI852
(dp2560
g2
S'A392'
p2561
sg4
I852
sg5
S'Fangzhao Wu'
p2562
ssI853
(dp2563
g2
S'A258'
p2564
sg4
I853
sg5
S'Albuquerque, G.'
p2565
ssI854
(dp2566
g2
S'A259'
p2567
sg4
I854
sg5
S'Kreiss, J.-P.'
p2568
ssI855
(dp2569
g2
S'A1094'
p2570
sg4
I855
sg5
S'Hurst, M.'
p2571
ssI856
(dp2572
g2
S'A1095'
p2573
sg4
I856
sg5
S'Pike, W.A.'
p2574
ssI857
(dp2575
g2
S'A1096'
p2576
sg4
I857
sg5
S'Baddeley, B.'
p2577
ssI858
(dp2578
g2
S'A1097'
p2579
sg4
I858
sg5
S'Best, D.'
p2580
ssI859
(dp2581
g2
S'A159'
p2582
sg4
I859
sg5
S'Wong, B.L.W.'
p2583
ssI860
(dp2584
g2
S'A158'
p2585
sg4
I860
sg5
S'Wheat, A.'
p2586
ssI861
(dp2587
g2
S'A1092'
p2588
sg4
I861
sg5
S'Hoff, A.'
p2589
ssI862
(dp2590
g2
S'A428'
p2591
sg4
I862
sg5
S'Abram, G.'
p2592
ssI863
(dp2593
g2
S'A155'
p2594
sg4
I863
sg5
S'van Wijk, J.J.'
p2595
ssI864
(dp2596
g2
S'A154'
p2597
sg4
I864
sg5
S'Blaas, J.'
p2598
ssI865
(dp2599
g2
S'A157'
p2600
sg4
I865
sg5
S'Kai Xu'
p2601
ssI866
(dp2602
g2
S'A156'
p2603
sg4
I866
sg5
S'Nguyen, P.H.'
p2604
ssI867
(dp2605
g2
S'A151'
p2606
sg4
I867
sg5
S'Brudno, M.'
p2607
ssI868
(dp2608
g2
S'A150'
p2609
sg4
I868
sg5
S'Wigdor, D.'
p2610
ssI869
(dp2611
g2
S'A153'
p2612
sg4
I869
sg5
S'Holten, D.'
p2613
ssI870
(dp2614
g2
S'A152'
p2615
sg4
I870
sg5
S'van den Elzen, S.'
p2616
ssI871
(dp2617
g2
S'A994'
p2618
sg4
I871
sg5
S'Dietzsch, J.'
p2619
ssI872
(dp2620
g2
S'A1101'
p2621
sg4
I872
sg5
S'Riensche, R.'
p2622
ssI873
(dp2623
g2
S'A407'
p2624
sg4
I873
sg5
S'Mahyar, N.'
p2625
ssI874
(dp2626
g2
S'A584'
p2627
sg4
I874
sg5
S'Stasko, J.'
p2628
ssI875
(dp2629
g2
S'A551'
p2630
sg4
I875
sg5
S'Enxun Wei'
p2631
ssI876
(dp2632
g2
S'A550'
p2633
sg4
I876
sg5
S'Panpan Xu'
p2634
ssI877
(dp2635
g2
S'A553'
p2636
sg4
I877
sg5
S'Seungyoon Lee'
p2637
ssI878
(dp2638
g2
S'A552'
p2639
sg4
I878
sg5
S'Ghani, S.'
p2640
ssI879
(dp2641
g2
S'A555'
p2642
sg4
I879
sg5
S'Bak, P.'
p2643
ssI880
(dp2644
g2
S'A554'
p2645
sg4
I880
sg5
S'Packer, E.'
p2646
ssI881
(dp2647
g2
S'A557'
p2648
sg4
I881
sg5
S'Polishchuk, V.'
p2649
ssI882
(dp2650
g2
S'A556'
p2651
sg4
I882
sg5
S'Nikkila, M.'
p2652
ssI883
(dp2653
g2
S'A559'
p2654
sg4
I883
sg5
S'Junping Zhang'
p2655
ssI884
(dp2656
g2
S'A558'
p2657
sg4
I884
sg5
S'Ship, H.J.'
p2658
ssI885
(dp2659
g2
S'A1247'
p2660
sg4
I885
sg5
S'Lichan Hong'
p2661
ssI886
(dp2662
g2
S'A897'
p2663
sg4
I886
sg5
S'Seungwon Yang'
p2664
ssI887
(dp2665
g2
S'A1241'
p2666
sg4
I887
sg5
S'Bue, B.'
p2667
ssI888
(dp2668
g2
S'A1240'
p2669
sg4
I888
sg5
S'Pattath, A.'
p2670
ssI889
(dp2671
g2
S'A809'
p2672
sg4
I889
sg5
S'Dang, T.'
p2673
ssI890
(dp2674
g2
S'A808'
p2675
sg4
I890
sg5
S'Eckler, K.'
p2676
ssI891
(dp2677
g2
S'A490'
p2678
sg4
I891
sg5
S'Stephens, D.'
p2679
ssI892
(dp2680
g2
S'A13'
p2681
sg4
I892
sg5
S'Whiting, M.'
p2682
ssI893
(dp2683
g2
S'A491'
p2684
sg4
I893
sg5
S'Yongjun Zheng'
p2685
ssI894
(dp2686
g2
S'A34'
p2687
sg4
I894
sg5
S'Koch, S.'
p2688
ssI895
(dp2689
g2
S'A492'
p2690
sg4
I895
sg5
S'Broeksema, B.'
p2691
ssI896
(dp2692
g2
S'A322'
p2693
sg4
I896
sg5
S'Lex, A.'
p2694
ssI897
(dp2695
g2
S'A323'
p2696
sg4
I897
sg5
S'Streit, M.'
p2697
ssI898
(dp2698
g2
S'A320'
p2699
sg4
I898
sg5
S'Lionel Ni'
p2700
ssI899
(dp2701
g2
S'A321'
p2702
sg4
I899
sg5
S'Partl, C.'
p2703
ssI900
(dp2704
g2
S'A326'
p2705
sg4
I900
sg5
S'Pfister, H.'
p2706
ssI901
(dp2707
g2
S'A327'
p2708
sg4
I901
sg5
S'Schmalstieg, D.'
p2709
ssI902
(dp2710
g2
S'A324'
p2711
sg4
I902
sg5
S'Strobelt, H.'
p2712
ssI903
(dp2713
g2
S'A325'
p2714
sg4
I903
sg5
S'Wassermann, A.M.'
p2715
ssI904
(dp2716
g2
S'A683'
p2717
sg4
I904
sg5
S'Butkiewicz, T.'
p2718
ssI905
(dp2719
g2
S'A890'
p2720
sg4
I905
sg5
S'Girardin, M.'
p2721
ssI906
(dp2722
g2
S'A328'
p2723
sg4
I906
sg5
S'Beham, M.'
p2724
ssI907
(dp2725
g2
S'A329'
p2726
sg4
I907
sg5
S'Herzner, W.'
p2727
ssI908
(dp2728
g2
S'A1122'
p2729
sg4
I908
sg5
S'Danon, G.'
p2730
ssI909
(dp2731
g2
S'A495'
p2732
sg4
I909
sg5
S'Crisafulli, P.'
p2733
ssI910
(dp2734
g2
S'A1244'
p2735
sg4
I910
sg5
S'Coyle, E.'
p2736
ssI911
(dp2737
g2
S'A200'
p2738
sg4
I911
sg5
S'Fulda, J.'
p2739
ssI912
(dp2740
g2
S'A855'
p2741
sg4
I912
sg5
S'Yu-Hsuan Chan'
p2742
ssI913
(dp2743
g2
S'A889'
p2744
sg4
I913
sg5
S'Laurendeau, D.'
p2745
ssI914
(dp2746
g2
S'A349'
p2747
sg4
I914
sg5
S'Ottley, A.'
p2748
ssI915
(dp2749
g2
S'A888'
p2750
sg4
I915
sg5
S'Boivin, E.'
p2751
ssI916
(dp2752
g2
S'A427'
p2753
sg4
I916
sg5
S'Jing Xia'
p2754
ssI917
(dp2755
g2
S'A1069'
p2756
sg4
I917
sg5
S'Montemayor, J.'
p2757
ssI918
(dp2758
g2
S'A1068'
p2759
sg4
I918
sg5
S'McGrew, B.'
p2760
ssI919
(dp2761
g2
S'A1144'
p2762
sg4
I919
sg5
S'Tsigas, P.'
p2763
ssI920
(dp2764
g2
S'A1145'
p2765
sg4
I920
sg5
S'Guoray Cai'
p2766
ssI921
(dp2767
g2
S'A1142'
p2768
sg4
I921
sg5
S'Zelenyuk, A.'
p2769
ssI922
(dp2770
g2
S'A1143'
p2771
sg4
I922
sg5
S'Imre, D.'
p2772
ssI923
(dp2773
g2
S'A250'
p2774
sg4
I923
sg5
S'Ji Soo Yi'
p2775
ssI924
(dp2776
g2
S'A891'
p2777
sg4
I924
sg5
S'Dudzic, S.'
p2778
ssI925
(dp2779
g2
S'A1061'
p2780
sg4
I925
sg5
S'Chi-Chun Pan'
p2781
ssI926
(dp2782
g2
S'A1060'
p2783
sg4
I926
sg5
S'Pellegrino, D.'
p2784
ssI927
(dp2785
g2
S'A1063'
p2786
sg4
I927
sg5
S'Junyan Luo'
p2787
ssI928
(dp2788
g2
S'A1062'
p2789
sg4
I928
sg5
S'Stryker, M.'
p2790
ssI929
(dp2791
g2
S'A1065'
p2792
sg4
I929
sg5
S'Turton, I.'
p2793
ssI930
(dp2794
g2
S'A1064'
p2795
sg4
I930
sg5
S'Chaomei Chen'
p2796
ssI931
(dp2797
g2
S'A1067'
p2798
sg4
I931
sg5
S'Sankar, R.'
p2799
ssI932
(dp2800
g2
S'A1066'
p2801
sg4
I932
sg5
S'Solomon, J.'
p2802
ssI933
(dp2803
g2
S'A883'
p2804
sg4
I933
sg5
S'Jenny, M.'
p2805
ssI934
(dp2806
g2
S'A1264'
p2807
sg4
I934
sg5
S'Mauger, J.'
p2808
ssI935
(dp2809
g2
S'A762'
p2810
sg4
I935
sg5
S'Shi, L.'
p2811
ssI936
(dp2812
g2
S'A18'
p2813
sg4
I936
sg5
S'Mengchen Liu'
p2814
ssI937
(dp2815
g2
S'A892'
p2816
sg4
I937
sg5
S'Hoeber, O.'
p2817
ssI938
(dp2818
g2
S'A706'
p2819
sg4
I938
sg5
S'Szucs, G.'
p2820
ssI939
(dp2821
g2
S'A739'
p2822
sg4
I939
sg5
S'Zhicheng Liu'
p2823
ssI940
(dp2824
g2
S'A933'
p2825
sg4
I940
sg5
S'Tsai-Ching Lu'
p2826
ssI941
(dp2827
g2
S'A1155'
p2828
sg4
I941
sg5
S'Wylie, B.'
p2829
ssI942
(dp2830
g2
S'A931'
p2831
sg4
I942
sg5
S'Walker, J.'
p2832
ssI943
(dp2833
g2
S'A930'
p2834
sg4
I943
sg5
S'Gregory, M.'
p2835
ssI944
(dp2836
g2
S'A937'
p2837
sg4
I944
sg5
S'Savikhin, A.'
p2838
ssI945
(dp2839
g2
S'A936'
p2840
sg4
I945
sg5
S'Rudolph, S.'
p2841
ssI946
(dp2842
g2
S'A935'
p2843
sg4
I946
sg5
S'Leonard, L.'
p2844
ssI947
(dp2845
g2
S'A1263'
p2846
sg4
I947
sg5
S'Parthasarathy, S.'
p2847
ssI948
(dp2848
g2
S'A763'
p2849
sg4
I948
sg5
S'Qi Liao'
p2850
ssI949
(dp2851
g2
S'A938'
p2852
sg4
I949
sg5
S'Ho Van Quan'
p2853
ssI950
(dp2854
g2
S'A702'
p2855
sg4
I950
sg5
S'Lukacs, A.'
p2856
ssI951
(dp2857
g2
S'A703'
p2858
sg4
I951
sg5
S'Nagy, A.'
p2859
ssI952
(dp2860
g2
S'A346'
p2861
sg4
I952
sg5
S'Korkmaz, F.'
p2862
ssI953
(dp2863
g2
S'A445'
p2864
sg4
I953
sg5
S'Keul, F.'
p2865
ssI954
(dp2866
g2
S'A738'
p2867
sg4
I954
sg5
S'Gorg, C.'
p2868
ssI955
(dp2869
g2
S'A1151'
p2870
sg4
I955
sg5
S'Kaastra, L.'
p2871
ssI956
(dp2872
g2
S'A347'
p2873
sg4
I956
sg5
S'Lin Shao'
p2874
ssI957
(dp2875
g2
S'A1019'
p2876
sg4
I957
sg5
S'Petrelli, D.'
p2877
ssI958
(dp2878
g2
S'A748'
p2879
sg4
I958
sg5
S'Chao Han'
p2880
ssI959
(dp2881
g2
S'A749'
p2882
sg4
I959
sg5
S'Fekete, J.'
p2883
ssI960
(dp2884
g2
S'A744'
p2885
sg4
I960
sg5
S'Swing, E.'
p2886
ssI961
(dp2887
g2
S'A745'
p2888
sg4
I961
sg5
S'Qian, Z.C.'
p2889
ssI962
(dp2890
g2
S'A746'
p2891
sg4
I962
sg5
S'Li Zhang'
p2892
ssI963
(dp2893
g2
S'A747'
p2894
sg4
I963
sg5
S'Navathe, S.B.'
p2895
ssI964
(dp2896
g2
S'A740'
p2897
sg4
I964
sg5
S'Peca, I.'
p2898
ssI965
(dp2899
g2
S'A741'
p2900
sg4
I965
sg5
S'Zhi, H.'
p2901
ssI966
(dp2902
g2
S'A742'
p2903
sg4
I966
sg5
S'Vrotsou, K.'
p2904
ssI967
(dp2905
g2
S'A743'
p2906
sg4
I967
sg5
S'Boone, K.'
p2907
ssI968
(dp2908
g2
S'A708'
p2909
sg4
I968
sg5
S'Pop, S.'
p2910
ssI969
(dp2911
g2
S'A709'
p2912
sg4
I969
sg5
S'Miles, H.'
p2913
ssI970
(dp2914
g2
S'A177'
p2915
sg4
I970
sg5
S'Perer, A.'
p2916
ssI971
(dp2917
g2
S'A1260'
p2918
sg4
I971
sg5
S'Peuquet, D.'
p2919
ssI972
(dp2920
g2
S'A1261'
p2921
sg4
I972
sg5
S'Theron, R.'
p2922
ssI973
(dp2923
g2
S'A68'
p2924
sg4
I973
sg5
S'Hong Wang'
p2925
ssI974
(dp2926
g2
S'A69'
p2927
sg4
I974
sg5
S'Jiun-Yi Tsai'
p2928
ssI975
(dp2929
g2
S'A176'
p2930
sg4
I975
sg5
S'Krause, J.'
p2931
ssI976
(dp2932
g2
S'A64'
p2933
sg4
I976
sg5
S'Jensen, V.R.'
p2934
ssI977
(dp2935
g2
S'A1159'
p2936
sg4
I977
sg5
S'Ice, L.'
p2937
ssI978
(dp2938
g2
S'A66'
p2939
sg4
I978
sg5
S'Steptoe, M.'
p2940
ssI979
(dp2941
g2
S'A67'
p2942
sg4
I979
sg5
S'Burke, S.'
p2943
ssI980
(dp2944
g2
S'A60'
p2945
sg4
I980
sg5
S'Huamin Qu'
p2946
ssI981
(dp2947
g2
S'A61'
p2948
sg4
I981
sg5
S'Solteszova, V.'
p2949
ssI982
(dp2950
g2
S'A62'
p2951
sg4
I982
sg5
S'Foscato, M.'
p2952
ssI983
(dp2953
g2
S'A1011'
p2954
sg4
I983
sg5
S'Ogawa, M.'
p2955
ssI984
(dp2956
g2
S'A986'
p2957
sg4
I984
sg5
S'Gilbert, F.'
p2958
ssI985
(dp2959
g2
S'A987'
p2960
sg4
I985
sg5
S'Trung-Tien Phan-Quang'
p2961
ssI986
(dp2962
g2
S'A984'
p2963
sg4
I986
sg5
S'Zaidi, F.'
p2964
ssI987
(dp2965
g2
S'A985'
p2966
sg4
I987
sg5
S'Archambault, D.'
p2967
ssI988
(dp2968
g2
S'A982'
p2969
sg4
I988
sg5
S'Simonetto, P.'
p2970
ssI989
(dp2971
g2
S'A983'
p2972
sg4
I989
sg5
S'Koenig, P.-Y.'
p2973
ssI990
(dp2974
g2
S'A980'
p2975
sg4
I990
sg5
S'VinhTuan Thai'
p2976
ssI991
(dp2977
g2
S'A65'
p2978
sg4
I991
sg5
S'Yafeng Lu'
p2979
ssI992
(dp2980
g2
S'A638'
p2981
sg4
I992
sg5
S'Airong Luo'
p2982
ssI993
(dp2983
g2
S'A639'
p2984
sg4
I993
sg5
S'Anderson, P.F.'
p2985
ssI994
(dp2986
g2
S'A733'
p2987
sg4
I994
sg5
S'van Gemert, J.C.'
p2988
ssI995
(dp2989
g2
S'A732'
p2990
sg4
I995
sg5
S'Migut, M.'
p2991
ssI996
(dp2992
g2
S'A735'
p2993
sg4
I996
sg5
S'Weil, P.'
p2994
ssI997
(dp2995
g2
S'A734'
p2996
sg4
I997
sg5
S'Hess, M.'
p2997
ssI998
(dp2998
g2
S'A737'
p2999
sg4
I998
sg5
S'Braunstein, E.'
p3000
ssI999
(dp3001
g2
S'A989'
p3002
sg4
I999
sg5
S'Lambert, A.'
p3003
ssI1000
(dp3004
g2
S'A447'
p3005
sg4
I1000
sg5
S'Hamacher, K.'
p3006
ssI1001
(dp3007
g2
S'A446'
p3008
sg4
I1001
sg5
S'Bremm, S.'
p3009
ssI1002
(dp3010
g2
S'A298'
p3011
sg4
I1002
sg5
S'Long Wang'
p3012
ssI1003
(dp3013
g2
S'A299'
p3014
sg4
I1003
sg5
S'Ronghua Liang'
p3015
ssI1004
(dp3016
g2
S'A115'
p3017
sg4
I1004
sg5
S'Hannah Kim'
p3018
ssI1005
(dp3019
g2
S'A114'
p3020
sg4
I1005
sg5
S'Hauser, H.'
p3021
ssI1006
(dp3022
g2
S'A117'
p3023
sg4
I1006
sg5
S'Yu Liang'
p3024
ssI1007
(dp3025
g2
S'A116'
p3026
sg4
I1007
sg5
S'Haesun Park'
p3027
ssI1008
(dp3028
g2
S'A292'
p3029
sg4
I1008
sg5
S'Muelder, C.'
p3030
ssI1009
(dp3031
g2
S'A118'
p3032
sg4
I1009
sg5
S'Wei Wu'
p3033
ssI1010
(dp3034
g2
S'A290'
p3035
sg4
I1010
sg5
S'Collins, C.'
p3036
ssI1011
(dp3037
g2
S'A291'
p3038
sg4
I1011
sg5
S'Crnovrsanin, T.'
p3039
ssI1012
(dp3040
g2
S'A296'
p3041
sg4
I1012
sg5
S'Han Hong'
p3042
ssI1013
(dp3043
g2
S'A297'
p3044
sg4
I1013
sg5
S'Tianyu Gu'
p3045
ssI1014
(dp3046
g2
S'A294'
p3047
sg4
I1014
sg5
S'Wei Chen'
p3048
ssI1015
(dp3049
g2
S'A295'
p3050
sg4
I1015
sg5
S'Feiran Wu'
p3051
ssI1016
(dp3052
g2
S'A1191'
p3053
sg4
I1016
sg5
S'Eick, M.A.'
p3054
ssI1017
(dp3055
g2
S'A1128'
p3056
sg4
I1017
sg5
S'Janoos, F.'
p3057
ssI1018
(dp3058
g2
S'A1193'
p3059
sg4
I1018
sg5
S'Horst, B.'
p3060
ssI1019
(dp3061
g2
S'A1192'
p3062
sg4
I1019
sg5
S'Fugitt, J.'
p3063
ssI1020
(dp3064
g2
S'A1195'
p3065
sg4
I1020
sg5
S'Lankenau, R.A.'
p3066
ssI1021
(dp3067
g2
S'A39'
p3068
sg4
I1021
sg5
S'Jarema, M.'
p3069
ssI1022
(dp3070
g2
S'A1197'
p3071
sg4
I1022
sg5
S'Suh, B.'
p3072
ssI1023
(dp3073
g2
S'A1196'
p3074
sg4
I1023
sg5
S'Minjung Kim'
p3075
ssI1024
(dp3076
g2
S'A1199'
p3077
sg4
I1024
sg5
S'Pendleton, B.A.'
p3078
ssI1025
(dp3079
g2
S'A1200'
p3080
sg4
I1025
sg5
S'Kittur, A.'
p3081
ssI1026
(dp3082
g2
S'A63'
p3083
sg4
I1026
sg5
S'Eliasson, S.H.'
p3084
ssI1027
(dp3085
g2
S'A781'
p3086
sg4
I1027
sg5
S'He Liu'
p3087
ssI1028
(dp3088
g2
S'A532'
p3089
sg4
I1028
sg5
S'Shneiderman, B.'
p3090
ssI1029
(dp3091
g2
S'A1201'
p3092
sg4
I1029
sg5
S'Enns, P.'
p3093
ssI1030
(dp3094
g2
S'A630'
p3095
sg4
I1030
sg5
S'Watson, L.T.'
p3096
ssI1031
(dp3097
g2
S'A597'
p3098
sg4
I1031
sg5
S'Greer, V.'
p3099
ssI1032
(dp3100
g2
S'A596'
p3101
sg4
I1032
sg5
S'Bowman, I.'
p3102
ssI1033
(dp3103
g2
S'A358'
p3104
sg4
I1033
sg5
S'Singhal, M.'
p3105
ssI1034
(dp3106
g2
S'A590'
p3107
sg4
I1034
sg5
S'Felix, C.'
p3108
ssI1035
(dp3109
g2
S'A593'
p3110
sg4
I1035
sg5
S'Chen, Y.'
p3111
ssI1036
(dp3112
g2
S'A1206'
p3113
sg4
I1036
sg5
S'Auvil, L.'
p3114
ssI1037
(dp3115
g2
S'A1209'
p3116
sg4
I1037
sg5
S'Searsmith, K.'
p3117
ssI1038
(dp3118
g2
S'A1208'
p3119
sg4
I1038
sg5
S'Searsmith, D.'
p3120
ssI1039
(dp3121
g2
S'A530'
p3122
sg4
I1039
sg5
S'Hanseung Lee'
p3123
ssI1040
(dp3124
g2
S'A599'
p3125
sg4
I1040
sg5
S'Portes dos Santos Amorim, E.'
p3126
ssI1041
(dp3127
g2
S'A598'
p3128
sg4
I1041
sg5
S'Van Horn, J.D.'
p3129
ssI1042
(dp3130
g2
S'A1129'
p3131
sg4
I1042
sg5
S'Singh, S.'
p3132
ssI1043
(dp3133
g2
S'A810'
p3134
sg4
I1043
sg5
S'Jansen, A.'
p3135
ssI1044
(dp3136
g2
S'A849'
p3137
sg4
I1044
sg5
S'Zappa, M.'
p3138
ssI1045
(dp3139
g2
S'A848'
p3140
sg4
I1045
sg5
S'Eosco, G.'
p3141
ssI1046
(dp3142
g2
S'A179'
p3143
sg4
I1046
sg5
S'Nan Cao'
p3144
ssI1047
(dp3145
g2
S'A188'
p3146
sg4
I1047
sg5
S'Gonzalez, A.'
p3147
ssI1048
(dp3148
g2
S'A189'
p3149
sg4
I1048
sg5
S'Leigh, J.'
p3150
ssI1049
(dp3151
g2
S'A186'
p3152
sg4
I1049
sg5
S'Gleicher, M.'
p3153
ssI1050
(dp3154
g2
S'A187'
p3155
sg4
I1050
sg5
S'Reda, K.'
p3156
ssI1051
(dp3157
g2
S'A184'
p3158
sg4
I1051
sg5
S'Ching-Yung Lin'
p3159
ssI1052
(dp3160
g2
S'A185'
p3161
sg4
I1052
sg5
S'Alexander, E.'
p3162
ssI1053
(dp3163
g2
S'A847'
p3164
sg4
I1053
sg5
S'Gutman, M.'
p3165
ssI1054
(dp3166
g2
S'A183'
p3167
sg4
I1054
sg5
S'Yu-Ru Lin'
p3168
ssI1055
(dp3169
g2
S'A180'
p3170
sg4
I1055
sg5
S'Conglei Shi'
p3171
ssI1056
(dp3172
g2
S'A181'
p3173
sg4
I1056
sg5
S'Lin, S.'
p3174
ssI1057
(dp3175
g2
S'A366'
p3176
sg4
I1057
sg5
S'Accorsi, P.'
p3177
ssI1058
(dp3178
g2
S'A367'
p3179
sg4
I1058
sg5
S'Fabregue, M.'
p3180
ssI1059
(dp3181
g2
S'A364'
p3182
sg4
I1059
sg5
S'Madar, A.'
p3183
ssI1060
(dp3184
g2
S'A365'
p3185
sg4
I1060
sg5
S'Bonneau, R.'
p3186
ssI1061
(dp3187
g2
S'A362'
p3188
sg4
I1061
sg5
S'Arrieta-Ortiz, M.L.'
p3189
ssI1062
(dp3190
g2
S'A363'
p3191
sg4
I1062
sg5
S'Hafemeister, C.'
p3192
ssI1063
(dp3193
g2
S'A360'
p3194
sg4
I1063
sg5
S'Xi Chen'
p3195
ssI1064
(dp3196
g2
S'A361'
p3197
sg4
I1064
sg5
S'Miraldi, E.'
p3198
ssI1065
(dp3199
g2
S'A29'
p3200
sg4
I1065
sg5
S'Endert, A.'
p3201
ssI1066
(dp3202
g2
S'A1140'
p3203
sg4
I1066
sg5
S'Eun Ju Nam'
p3204
ssI1067
(dp3205
g2
S'A637'
p3206
sg4
I1067
sg5
S'Sramek, M.'
p3207
ssI1068
(dp3208
g2
S'A996'
p3209
sg4
I1068
sg5
S'Bartz, D.'
p3210
ssI1069
(dp3211
g2
S'A369'
p3212
sg4
I1069
sg5
S'Cernesson, F.'
p3213
ssI1070
(dp3214
g2
S'A164'
p3215
sg4
I1070
sg5
S'Rohlig, M.'
p3216
ssI1071
(dp3217
g2
S'A165'
p3218
sg4
I1071
sg5
S'Schumann, H.'
p3219
ssI1072
(dp3220
g2
S'A166'
p3221
sg4
I1072
sg5
S'Shenghui Cheng'
p3222
ssI1073
(dp3223
g2
S'A167'
p3224
sg4
I1073
sg5
S'Yue Wang'
p3225
ssI1074
(dp3226
g2
S'A160'
p3227
sg4
I1074
sg5
S'Attfield, S.'
p3228
ssI1075
(dp3229
g2
S'A208'
p3230
sg4
I1075
sg5
S'Peter, J.'
p3231
ssI1076
(dp3232
g2
S'A162'
p3233
sg4
I1076
sg5
S'Richter, C.'
p3234
ssI1077
(dp3235
g2
S'A163'
p3236
sg4
I1077
sg5
S'Luboschik, M.'
p3237
ssI1078
(dp3238
g2
S'A205'
p3239
sg4
I1078
sg5
S'Minsuk Kahng'
p3240
ssI1079
(dp3241
g2
S'A204'
p3242
sg4
I1079
sg5
S'Shang-Tse Chen'
p3243
ssI1080
(dp3244
g2
S'A769'
p3245
sg4
I1080
sg5
S'MacEachren, A.M.'
p3246
ssI1081
(dp3247
g2
S'A206'
p3248
sg4
I1081
sg5
S'Sharmin, M.'
p3249
ssI1082
(dp3250
g2
S'A201'
p3251
sg4
I1082
sg5
S'Brehmer, M.'
p3252
ssI1083
(dp3253
g2
S'A169'
p3254
sg4
I1083
sg5
S'Zhifang Jiang'
p3255
ssI1084
(dp3256
g2
S'A203'
p3257
sg4
I1084
sg5
S'Polack, P.J.'
p3258
ssI1085
(dp3259
g2
S'A202'
p3260
sg4
I1085
sg5
S'Munzner, T.'
p3261
ssI1086
(dp3262
g2
S'A1243'
p3263
sg4
I1086
sg5
S'Aulf, A.'
p3264
ssI1087
(dp3265
g2
S'A1141'
p3266
sg4
I1087
sg5
S'Han, Y.'
p3267
ssI1088
(dp3268
g2
S'A1108'
p3269
sg4
I1088
sg5
S'Grannis, S.J.'
p3270
ssI1089
(dp3271
g2
S'A633'
p3272
sg4
I1089
sg5
S'Bouzari, H.'
p3273
ssI1090
(dp3274
g2
S'A988'
p3275
sg4
I1090
sg5
S'Mathiaut, M.'
p3276
ssI1091
(dp3277
g2
S'A1102'
p3278
sg4
I1091
sg5
S'Younkin, K.'
p3279
ssI1092
(dp3280
g2
S'A1103'
p3281
sg4
I1092
sg5
S'Hafen, R.'
p3282
ssI1093
(dp3283
g2
S'A1100'
p3284
sg4
I1093
sg5
S'Rice, D.M.'
p3285
ssI1094
(dp3286
g2
S'A736'
p3287
sg4
I1094
sg5
S'Hamacherk, K.'
p3288
ssI1095
(dp3289
g2
S'A1106'
p3290
sg4
I1095
sg5
S'Ouzzani, M.'
p3291
ssI1096
(dp3292
g2
S'A1107'
p3293
sg4
I1096
sg5
S'Cleveland, W.S.'
p3294
ssI1097
(dp3295
g2
S'A1104'
p3296
sg4
I1097
sg5
S'Abusalah, A.'
p3297
ssI1098
(dp3298
g2
S'A1105'
p3299
sg4
I1098
sg5
S'Yakout, M.'
p3300
ssI1099
(dp3301
g2
S'A568'
p3302
sg4
I1099
sg5
S'Beecham, R.'
p3303
ssI1100
(dp3304
g2
S'A210'
p3305
sg4
I1100
sg5
S'Jofre, A.'
p3306
ssI1101
(dp3307
g2
S'A569'
p3308
sg4
I1101
sg5
S'Bowerman, A.'
p3309
ssI1102
(dp3310
g2
S'A731'
p3311
sg4
I1102
sg5
S'Sheffield, D.'
p3312
ssI1103
(dp3313
g2
S'A113'
p3314
sg4
I1103
sg5
S'Jelovic, M.'
p3315
ssI1104
(dp3316
g2
S'A493'
p3317
sg4
I1104
sg5
S'Baudel, T.'
p3318
ssI1105
(dp3319
g2
S'A634'
p3320
sg4
I1105
sg5
S'Schernthaner, R.'
p3321
ssI1106
(dp3322
g2
S'A444'
p3323
sg4
I1106
sg5
S'Lenz, O.'
p3324
ssI1107
(dp3325
g2
S'A443'
p3326
sg4
I1107
sg5
S'Wentao Gu'
p3327
ssI1108
(dp3328
g2
S'A863'
p3329
sg4
I1108
sg5
S'Jing Jin'
p3330
ssI1109
(dp3331
g2
S'A442'
p3332
sg4
I1109
sg5
S'Weifeng Chen'
p3333
ssI1110
(dp3334
g2
S'A1116'
p3335
sg4
I1110
sg5
S"O'Connell, T."
p3336
ssI1111
(dp3337
g2
S'A846'
p3338
sg4
I1111
sg5
S'Shaw, C.'
p3339
ssI1112
(dp3340
g2
S'A981'
p3341
sg4
I1112
sg5
S'Handschuh, S.'
p3342
ssI1113
(dp3343
g2
S'A211'
p3344
sg4
I1113
sg5
S'Diamond, S.'
p3345
ssI1114
(dp3346
g2
S'A441'
p3347
sg4
I1114
sg5
S'Kun Zhou'
p3348
ssI1115
(dp3349
g2
S'A730'
p3350
sg4
I1115
sg5
S'Canfield, C.M.'
p3351
ssI1116
(dp3352
g2
S'A440'
p3353
sg4
I1116
sg5
S'Zhiqi Liu'
p3354
ssI1117
(dp3355
g2
S'A635'
p3356
sg4
I1117
sg5
S'Baclija, I.'
p3357
ssI1118
(dp3358
g2
S'A1036'
p3359
sg4
I1118
sg5
S'Nan Du'
p3360
ssI1119
(dp3361
g2
S'A119'
p3362
sg4
I1119
sg5
S'Xiaohui Li'
p3363
ssI1120
(dp3364
g2
S'A1034'
p3365
sg4
I1120
sg5
S'Deyong Hu'
p3366
ssI1121
(dp3367
g2
S'A1035'
p3368
sg4
I1121
sg5
S'Bin Wu'
p3369
ssI1122
(dp3370
g2
S'A1032'
p3371
sg4
I1122
sg5
S'Qi Ye'
p3372
ssI1123
(dp3373
g2
S'A1033'
p3374
sg4
I1123
sg5
S'Tian Zhu'
p3375
ssI1124
(dp3376
g2
S'A1030'
p3377
sg4
I1124
sg5
S'Pascual-Cid, V.'
p3378
ssI1125
(dp3379
g2
S'A293'
p3380
sg4
I1125
sg5
S'Fei Wang'
p3381
ssI1126
(dp3382
g2
S'A862'
p3383
sg4
I1126
sg5
S'Theisel, H.'
p3384
ssI1127
(dp3385
g2
S'A632'
p3386
sg4
I1127
sg5
S'Mistelbauer, G.'
p3387
ssI1128
(dp3388
g2
S'A1038'
p3389
sg4
I1128
sg5
S'Farrugia, M.'
p3390
ssI1129
(dp3391
g2
S'A1039'
p3392
sg4
I1129
sg5
S'Quigley, A.'
p3393
ssI1130
(dp3394
g2
S'A563'
p3395
sg4
I1130
sg5
S'Heitmann, K.'
p3396
ssI1131
(dp3397
g2
S'A669'
p3398
sg4
I1131
sg5
S'Zeqian Shen'
p3399
ssI1132
(dp3400
g2
S'A668'
p3401
sg4
I1132
sg5
S'Jishang Wei'
p3402
ssI1133
(dp3403
g2
S'A667'
p3404
sg4
I1133
sg5
S'Tekusova, M.'
p3405
ssI1134
(dp3406
g2
S'A564'
p3407
sg4
I1134
sg5
S'Huang, W.'
p3408
ssI1135
(dp3409
g2
S'A665'
p3410
sg4
I1135
sg5
S'Last, H.'
p3411
ssI1136
(dp3412
g2
S'A664'
p3413
sg4
I1136
sg5
S'Weber, S.'
p3414
ssI1137
(dp3415
g2
S'A663'
p3416
sg4
I1137
sg5
S'Pompl, R.'
p3417
ssI1138
(dp3418
g2
S'A636'
p3419
sg4
I1138
sg5
S'Kochl, A.'
p3420
ssI1139
(dp3421
g2
S'A661'
p3422
sg4
I1139
sg5
S'Hongan Wang'
p3423
ssI1140
(dp3424
g2
S'A565'
p3425
sg4
I1140
sg5
S'Boubela, R.N.'
p3426
ssI1141
(dp3427
g2
S'A525'
p3428
sg4
I1141
sg5
S'Hadlak, S.'
p3429
ssI1142
(dp3430
g2
S'A977'
p3431
sg4
I1142
sg5
S'Wei Liu'
p3432
ssI1143
(dp3433
g2
S'A787'
p3434
sg4
I1143
sg5
S'Buchmuller, J.'
p3435
ssI1144
(dp3436
g2
S'A566'
p3437
sg4
I1144
sg5
S'Unger, A.'
p3438
ssI1145
(dp3439
g2
S'A600'
p3440
sg4
I1145
sg5
S'Brazil, E.V.'
p3441
ssI1146
(dp3442
g2
S'A567'
p3443
sg4
I1146
sg5
S'Hege, H.-C.'
p3444
ssI1147
(dp3445
g2
S'A844'
p3446
sg4
I1147
sg5
S'Joorabchi, M.E.'
p3447
ssI1148
(dp3448
g2
S'A962'
p3449
sg4
I1148
sg5
S'Dejgaard, K.'
p3450
ssI1149
(dp3451
g2
S'A974'
p3452
sg4
I1149
sg5
S'Castellanos, M.'
p3453
ssI1150
(dp3454
g2
S'A1190'
p3455
sg4
I1150
sg5
S'Eick, S.G.'
p3456
ssI1151
(dp3457
g2
S'A973'
p3458
sg4
I1151
sg5
S'Bridgeman, S.'
p3459
ssI1152
(dp3460
g2
S'A604'
p3461
sg4
I1152
sg5
S'Tran, D.'
p3462
ssI1153
(dp3463
g2
S'A948'
p3464
sg4
I1153
sg5
S'Granacher, C.'
p3465
ssI1154
(dp3466
g2
S'A949'
p3467
sg4
I1154
sg5
S'Butscher, S.'
p3468
ssI1155
(dp3469
g2
S'A607'
p3470
sg4
I1155
sg5
S'Ferro, N.'
p3471
ssI1156
(dp3472
g2
S'A942'
p3473
sg4
I1156
sg5
S'Jankun-Kelly, T.J.'
p3474
ssI1157
(dp3475
g2
S'A943'
p3476
sg4
I1157
sg5
S'Fitzpatrick, P.J.'
p3477
ssI1158
(dp3478
g2
S'A940'
p3479
sg4
I1158
sg5
S'Jern, M.'
p3480
ssI1159
(dp3481
g2
S'A941'
p3482
sg4
I1159
sg5
S'Steed, C.A.'
p3483
ssI1160
(dp3484
g2
S'A946'
p3485
sg4
I1160
sg5
S'Reina, G.'
p3486
ssI1161
(dp3487
g2
S'A947'
p3488
sg4
I1161
sg5
S'Leifert, S.'
p3489
ssI1162
(dp3490
g2
S'A944'
p3491
sg4
I1162
sg5
S'Heinrich, J.'
p3492
ssI1163
(dp3493
g2
S'A945'
p3494
sg4
I1163
sg5
S'Muller, C.'
p3495
ssI1164
(dp3496
g2
S'A409'
p3497
sg4
I1164
sg5
S'Gargiulo, M.F.'
p3498
ssI1165
(dp3499
g2
S'A408'
p3500
sg4
I1165
sg5
S'Tory, M.'
p3501
ssI1166
(dp3502
g2
S'A1093'
p3503
sg4
I1166
sg5
S'Robertson, G.'
p3504
ssI1167
(dp3505
g2
S'A1194'
p3506
sg4
I1167
sg5
S'Khailo, M.'
p3507
ssI1168
(dp3508
g2
S'A419'
p3509
sg4
I1168
sg5
S'Lin, J.'
p3510
ssI1169
(dp3511
g2
S'A403'
p3512
sg4
I1169
sg5
S'Horvath, Z.'
p3513
ssI1170
(dp3514
g2
S'A402'
p3515
sg4
I1170
sg5
S'Perdigao, R.A.P.'
p3516
ssI1171
(dp3517
g2
S'A401'
p3518
sg4
I1171
sg5
S'Cornel, D.'
p3519
ssI1172
(dp3520
g2
S'A400'
p3521
sg4
I1172
sg5
S'Sadransky, B.'
p3522
ssI1173
(dp3523
g2
S'A527'
p3524
sg4
I1173
sg5
S'Wollenberg, T.'
p3525
ssI1174
(dp3526
g2
S'A406'
p3527
sg4
I1174
sg5
S'Witmore, M.'
p3528
ssI1175
(dp3529
g2
S'A405'
p3530
sg4
I1175
sg5
S'Valenza, R.'
p3531
ssI1176
(dp3532
g2
S'A404'
p3533
sg4
I1176
sg5
S'Kohlmann, J.'
p3534
ssI1177
(dp3535
g2
S'A799'
p3536
sg4
I1177
sg5
S'Ming Hao'
p3537
ssI1178
(dp3538
g2
S'A798'
p3539
sg4
I1178
sg5
S'Zieker, M.'
p3540
ssI1179
(dp3541
g2
S'A1198'
p3542
sg4
I1179
sg5
S'Chi, E.H.'
p3543
ssI1180
(dp3544
g2
S'A793'
p3545
sg4
I1180
sg5
S'Regenscheit, M.'
p3546
ssI1181
(dp3547
g2
S'A792'
p3548
sg4
I1181
sg5
S'Ramm, T.'
p3549
ssI1182
(dp3550
g2
S'A791'
p3551
sg4
I1182
sg5
S'Mansmann, F.'
p3552
ssI1183
(dp3553
g2
S'A790'
p3554
sg4
I1183
sg5
S'Maass, F.'
p3555
ssI1184
(dp3556
g2
S'A797'
p3557
sg4
I1184
sg5
S'Tautzenberger, M.'
p3558
ssI1185
(dp3559
g2
S'A796'
p3560
sg4
I1185
sg5
S'Sellien, S.'
p3561
ssI1186
(dp3562
g2
S'A795'
p3563
sg4
I1186
sg5
S'Scheible, C.'
p3564
ssI1187
(dp3565
g2
S'A794'
p3566
sg4
I1187
sg5
S'Rohrdantz, C.'
p3567
ssI1188
(dp3568
g2
S'A15'
p3569
sg4
I1188
sg5
S'Yokoyama, D.'
p3570
ssI1189
(dp3571
g2
S'A14'
p3572
sg4
I1189
sg5
S'Itoh, M.'
p3573
ssI1190
(dp3574
g2
S'A17'
p3575
sg4
I1190
sg5
S'Kitsuregawa, M.'
p3576
ssI1191
(dp3577
g2
S'A16'
p3578
sg4
I1191
sg5
S'Toyoda, M.'
p3579
ssI1192
(dp3580
g2
S'A11'
p3581
sg4
I1192
sg5
S'Cook, K.A.'
p3582
ssI1193
(dp3583
g2
S'A10'
p3584
sg4
I1193
sg5
S'Laidlaw, D.H.'
p3585
ssI1194
(dp3586
g2
S'A496'
p3587
sg4
I1194
sg5
S'Li Yu'
p3588
ssI1195
(dp3589
g2
S'A12'
p3590
sg4
I1195
sg5
S'Scholtz, J.'
p3591
ssI1196
(dp3592
g2
S'A498'
p3593
sg4
I1196
sg5
S'Willett, W.'
p3594
ssI1197
(dp3595
g2
S'A499'
p3596
sg4
I1197
sg5
S'Ginosar, S.'
p3597
ssI1198
(dp3598
g2
S'A885'
p3599
sg4
I1198
sg5
S'Oelke, D.'
p3600
ssI1199
(dp3601
g2
S'A884'
p3602
sg4
I1199
sg5
S'Gruse, T.'
p3603
ssI1200
(dp3604
g2
S'A19'
p3605
sg4
I1200
sg5
S'Shixia Liu'
p3606
ssI1201
(dp3607
g2
S'A804'
p3608
sg4
I1201
sg5
S'Ronen, I.'
p3609
ssI1202
(dp3610
g2
S'A881'
p3611
sg4
I1202
sg5
S'Patnaik, D.'
p3612
ssI1203
(dp3613
g2
S'A880'
p3614
sg4
I1203
sg5
S'Sharma, R.'
p3615
ssI1204
(dp3616
g2
S'A1'
p3617
sg4
I1204
sg5
S'Lawonn, K.'
p3618
ssI1205
(dp3619
g2
S'A0'
p3620
sg4
I1205
sg5
S'Klemm, P.'
p3621
ssI1206
(dp3622
g2
S'A3'
p3623
sg4
I1206
sg5
S'Niemann, U.'
p3624
ssI1207
(dp3625
g2
S'A2'
p3626
sg4
I1207
sg5
S'Glaer, S.'
p3627
ssI1208
(dp3628
g2
S'A5'
p3629
sg4
I1208
sg5
S'Volzke, H.'
p3630
ssI1209
(dp3631
g2
S'A4'
p3632
sg4
I1209
sg5
S'Hegenscheid, K.'
p3633
ssI1210
(dp3634
g2
S'A7'
p3635
sg4
I1210
sg5
S'Hua Guo'
p3636
ssI1211
(dp3637
g2
S'A6'
p3638
sg4
I1211
sg5
S'Preim, B.'
p3639
ssI1212
(dp3640
g2
S'A9'
p3641
sg4
I1212
sg5
S'Ziemkiewicz, C.'
p3642
ssI1213
(dp3643
g2
S'A8'
p3644
sg4
I1213
sg5
S'Gomez, S.R.'
p3645
ssI1214
(dp3646
g2
S'A595'
p3647
sg4
I1214
sg5
S'Aidong Lu'
p3648
ssI1215
(dp3649
g2
S'A448'
p3650
sg4
I1215
sg5
S'Yanli, E.'
p3651
ssI1216
(dp3652
g2
S'A78'
p3653
sg4
I1216
sg5
S'Kapoor, A.'
p3654
ssI1217
(dp3655
g2
S'A241'
p3656
sg4
I1217
sg5
S'Wewnen Dou'
p3657
ssI1218
(dp3658
g2
S'A240'
p3659
sg4
I1218
sg5
S'Ertl, T.'
p3660
ssI1219
(dp3661
g2
S'A243'
p3662
sg4
I1219
sg5
S'Sauda, E.'
p3663
ssI1220
(dp3664
g2
S'A242'
p3665
sg4
I1220
sg5
S'Wang, D.X.'
p3666
ssI1221
(dp3667
g2
S'A245'
p3668
sg4
I1221
sg5
S'Gutenko, I.'
p3669
ssI1222
(dp3670
g2
S'A244'
p3671
sg4
I1222
sg5
S'Papadopoulos, C.'
p3672
ssI1223
(dp3673
g2
S'A247'
p3674
sg4
I1223
sg5
S'Sung-Hee Kim'
p3675
ssI1224
(dp3676
g2
S'A246'
p3677
sg4
I1224
sg5
S'Kaufman, A.'
p3678
ssI1225
(dp3679
g2
S'A521'
p3680
sg4
I1225
sg5
S'Dostie, M.'
p3681
ssI1226
(dp3682
g2
S'A248'
p3683
sg4
I1226
sg5
S'Sukwon Lee'
p3684
ssI1227
(dp3685
g2
S'A803'
p3686
sg4
I1227
sg5
S'Uziel, E.'
p3687
ssI1228
(dp3688
g2
S'A1203'
p3689
sg4
I1228
sg5
S'Schwendiman, L.'
p3690
ssI1229
(dp3691
g2
S'A539'
p3692
sg4
I1229
sg5
S'Griffiths, I.W.'
p3693
ssI1230
(dp3694
g2
S'A538'
p3695
sg4
I1230
sg5
S'Jones, M.W.'
p3696
ssI1231
(dp3697
g2
S'A128'
p3698
sg4
I1231
sg5
S'Luksch, C.'
p3699
ssI1232
(dp3700
g2
S'A129'
p3701
sg4
I1232
sg5
S'Schwarzler, M.'
p3702
ssI1233
(dp3703
g2
S'A1202'
p3704
sg4
I1233
sg5
S'Kuan, W.'
p3705
ssI1234
(dp3706
g2
S'A120'
p3707
sg4
I1234
sg5
S'Guangxia Li'
p3708
ssI1235
(dp3709
g2
S'A121'
p3710
sg4
I1235
sg5
S'Wee Siong Ng'
p3711
ssI1236
(dp3712
g2
S'A122'
p3713
sg4
I1236
sg5
S'See-Kiong Ng'
p3714
ssI1237
(dp3715
g2
S'A123'
p3716
sg4
I1237
sg5
S'Zhongwen Huang'
p3717
ssI1238
(dp3718
g2
S'A124'
p3719
sg4
I1238
sg5
S'Arunan, A.'
p3720
ssI1239
(dp3721
g2
S'A125'
p3722
sg4
I1239
sg5
S'Hui Min Watt'
p3723
ssI1240
(dp3724
g2
S'A126'
p3725
sg4
I1240
sg5
S'Sorger, J.'
p3726
ssI1241
(dp3727
g2
S'A127'
p3728
sg4
I1241
sg5
S'Ortner, T.'
p3729
ssI1242
(dp3730
g2
S'A28'
p3731
sg4
I1242
sg5
S'Ragan, E.D.'
p3732
ssI1243
(dp3733
g2
S'A1255'
p3734
sg4
I1243
sg5
S'Chen, C.'
p3735
ssI1244
(dp3736
g2
S'A975'
p3737
sg4
I1244
sg5
S'Xiongfei Luo'
p3738
ssI1245
(dp3739
g2
S'A36'
p3740
sg4
I1245
sg5
S'Scheidegger, C.E.'
p3741
ssI1246
(dp3742
g2
S'A864'
p3743
sg4
I1246
sg5
S'Szekely, P.'
p3744
ssI1247
(dp3745
g2
S'A887'
p3746
sg4
I1247
sg5
S'Mokhtari, M.'
p3747
ssI1248
(dp3748
g2
S'A592'
p3749
sg4
I1248
sg5
S'Hsu, M.'
p3750
ssI1249
(dp3751
g2
S'A868'
p3752
sg4
I1249
sg5
S'Mahajan, R.'
p3753
ssI1250
(dp3754
g2
S'A832'
p3755
sg4
I1250
sg5
S'Brady, R.'
p3756
ssI1251
(dp3757
g2
S'A833'
p3758
sg4
I1251
sg5
S'Maggioni, M.'
p3759
ssI1252
(dp3760
g2
S'A830'
p3761
sg4
I1252
sg5
S'Monson, E.E.'
p3762
ssI1253
(dp3763
g2
S'A348'
p3764
sg4
I1253
sg5
S'Brown, E.T.'
p3765
ssI1254
(dp3766
g2
S'A836'
p3767
sg4
I1254
sg5
S'Kivran-Swaine, F.'
p3768
ssI1255
(dp3769
g2
S'A837'
p3770
sg4
I1255
sg5
S'Ingram, S.'
p3771
ssI1256
(dp3772
g2
S'A834'
p3773
sg4
I1256
sg5
S'Diakopoulos, N.'
p3774
ssI1257
(dp3775
g2
S'A835'
p3776
sg4
I1257
sg5
S'Naaman, M.'
p3777
ssI1258
(dp3778
g2
S'A1256'
p3779
sg4
I1258
sg5
S'Ibekwe-SanJuan, F.'
p3780
ssI1259
(dp3781
g2
S'A1257'
p3782
sg4
I1259
sg5
S'SanJuan, E.'
p3783
ssI1260
(dp3784
g2
S'A838'
p3785
sg4
I1260
sg5
S'Irvine, V.'
p3786
ssI1261
(dp3787
g2
S'A839'
p3788
sg4
I1261
sg5
S'Bergner, S.'
p3789
ssI1262
(dp3790
g2
S'A1252'
p3791
sg4
I1262
sg5
S'Zelinsky, G.'
p3792
ssI1263
(dp3793
g2
S'A1253'
p3794
sg4
I1263
sg5
S'Warren, D.S.'
p3795
ssI1264
(dp3796
g2
S'A1250'
p3797
sg4
I1264
sg5
S'Yuli Gao'
p3798
ssI1265
(dp3799
g2
S'A1251'
p3800
sg4
I1265
sg5
S'Brennan, S.E.'
p3801
ss.